Hatari CPU profile (Hatari v2.5.0)
Cycles/second:	32084988
Field names:	Executed instructions, Used cycles, Instruction cache misses, Data cache hits
Field regexp:	^\$?([0-9A-Fa-f]+) .*% \(([^)]*)\)$
ST_RAM:		0x000000-0x100000
ROM_TOS:	0xe00000-0xe40000
CARTRIDGE:	0xfa0000-0xfc0000
PROGRAM_TEXT:	0x02f92e-0x04d716
# disassembly with profile data: <instructions percentage>% (<sum of instructions>, <sum of cycles>, <sum of i-cache misses>, <sum of d-cache hits>)
_swap_pages:
00030182 4E56 0000                link.w a6,#$0000                   0.00% (192, 3072, 0, 0)
00030186 48E7 3838                movem.l d2-d4/a2-a4,-(a7)          0.00% (192, 10752, 0, 0)
0003018A 266E 0008                movea.l (a6,$0008),a3              0.00% (192, 3072, 0, 0)
0003018E 246E 000C                movea.l (a6,$000C),a2              0.00% (192, 3072, 0, 0)
00030192 204A                     movea.l a2,a0                      0.00% (192, 768, 0, 0)
00030194 23D8 0004 E7DE           move.l (a0)+,$0004E7DE             0.00% (192, 5376, 0, 0)
0003019A 23D8 0004 E7E2           move.l (a0)+,$0004E7E2             0.00% (192, 5376, 0, 0)
000301A0 23D8 0004 E7E6           move.l (a0)+,$0004E7E6             0.00% (192, 5376, 0, 0)
000301A6 23D8 0004 E7EA           move.l (a0)+,$0004E7EA             0.00% (192, 5432, 0, 0)
000301AC 23D8 0004 E7EE           move.l (a0)+,$0004E7EE             0.00% (192, 5376, 0, 0)
000301B2 49F9 0004 E7F2           lea.l $0004E7F2,a4                 0.00% (192, 2304, 0, 0)
000301B8 2890                     move.l (a0),(a4) _memcpy           0.00% (192, 3840, 0, 0)
000301BA 224B                     movea.l a3,a1                      0.00% (192, 768, 0, 0)
000301BC 204A                     movea.l a2,a0                      0.00% (192, 768, 0, 0)
000301BE 20D9                     move.l (a1)+,(a0)+                 0.00% (192, 3840, 0, 0)
000301C0 20D9                     move.l (a1)+,(a0)+                 0.00% (192, 3840, 0, 0)
000301C2 20D9                     move.l (a1)+,(a0)+                 0.00% (192, 3840, 0, 0)
000301C4 20D9                     move.l (a1)+,(a0)+                 0.00% (192, 3840, 0, 0)
000301C6 20D9                     move.l (a1)+,(a0)+                 0.00% (192, 3840, 0, 0)
000301C8 2091                     move.l (a1),(a0)                   0.00% (192, 3840, 0, 0)
000301CA 204B                     movea.l a3,a0                      0.00% (192, 768, 0, 0)
000301CC 20F9 0004 E7DE           move.l $0004E7DE,(a0)+             0.00% (192, 5376, 0, 0)
000301D2 20F9 0004 E7E2           move.l $0004E7E2,(a0)+             0.00% (192, 5376, 0, 0)
000301D8 20F9 0004 E7E6           move.l $0004E7E6,(a0)+             0.00% (192, 5376, 0, 0)
000301DE 20F9 0004 E7EA           move.l $0004E7EA,(a0)+             0.00% (192, 5376, 0, 0)
000301E4 20F9 0004 E7EE           move.l $0004E7EE,(a0)+             0.00% (192, 5376, 0, 0)
000301EA 2094                     move.l (a4) _memcpy,(a0)           0.00% (192, 3840, 0, 0)
000301EC 262B 0010                move.l (a3,$0010),d3               0.00% (192, 3072, 0, 0)
000301F0 202A 0010                move.l (a2,$0010),d0               0.00% (192, 3072, 0, 0)
000301F4 78FF                     moveq #$FF,d4                      0.00% (192, 768, 0, 0)
000301F6 3F04                     move.w d4,-(a7)                    0.00% (192, 1536, 0, 0)
000301F8 2F00                     move.l d0,-(a7)                    0.00% (192, 2304, 0, 0)
000301FA 2F03                     move.l d3,-(a7)                    0.00% (192, 2304, 0, 0)
000301FC 3F3C 0005                move.w #$0005,-(a7)                0.00% (192, 2304, 0, 0)
00030200 4E4E                     trap #$0E                          0.00% (192, 6912, 0, 0)
00030202 4FEF 000C                lea.l (a7,$000C),a7                0.00% (192, 1536, 0, 0)
00030206 4CDF 1C1C                movem.l (a7)+,d2-d4/a2-a4          0.00% (192, 11520, 0, 0)
0003020A 4E5E                     unlk.l a6                          0.00% (192, 2304, 0, 0)
0003020C 4E75                     rts                                0.00% (192, 3072, 0, 0)
[...]
_lineablit:
00030276 4E56 FFB4                link.w a6,#$FFB4                   0.00% (192, 3072, 0, 0)
0003027A 48E7 3F30                movem.l d2-d7/a2-a3,-(a7)          0.00% (192, 13824, 0, 0)
0003027E 242E 0008                move.l (a6,$0008),d2               0.00% (192, 3072, 0, 0)
00030282 246E 001C                movea.l (a6,$001C),a2              0.00% (192, 3072, 0, 0)
00030286 366E 000E                movea.w (a6,$000E),a3              0.00% (192, 2304, 0, 0)
0003028A 3E2E 0012                move.w (a6,$0012),d7               0.00% (192, 2304, 0, 0)
0003028E 382E 0016                move.w (a6,$0016),d4               0.00% (192, 2304, 0, 0)
00030292 362E 001A                move.w (a6,$001A),d3               0.00% (192, 2304, 0, 0)
00030296 3C2E 0022                move.w (a6,$0022),d6               0.00% (192, 2304, 0, 0)
0003029A 3A2E 0026                move.w (a6,$0026),d5               0.00% (192, 2304, 0, 0)
0003029E 4A2E 002B                tst.b (a6,$002B)                   0.00% (192, 2304, 0, 0)
000302A2 6600 00BA                bne.w #$00BA                       0.00% (192, 2304, 0, 0)
000302A6 23C2 0004 D728           move.l d2,$0004D728                0.00% (192, 3840, 0, 0)
000302AC 33CB 0004 D724           move.w a3,$0004D724                0.00% (192, 3072, 0, 0)
000302B2 33C7 0004 D726           move.w d7,$0004D726                0.00% (192, 3072, 0, 0)
000302B8 23CA 0004 D71A           move.l a2,$0004D71A                0.00% (192, 3840, 0, 0)
000302BE 33C6 0004 D716           move.w d6,$0004D716 _etext         0.00% (192, 3072, 0, 0)
000302C4 33C5 0004 D718           move.w d5,$0004D718                0.00% (192, 3072, 0, 0)
000302CA 45EE FFB4                lea.l (a6,-$004C),a2               0.00% (192, 1536, 0, 0)
000302CE 4878 004C                pea.l $0000004C.w                  0.00% (192, 3072, 0, 0)
000302D2 42A7                     clr.l -(a7)                        0.00% (192, 4608, 0, 0)
000302D4 2F0A                     move.l a2,-(a7)                    0.00% (192, 2304, 0, 0)
000302D6 4EB9 0003 B062           jsr $0003B062 _memset              0.00% (192, 3840, 0, 0)
000302DC 3D44 FFB4                move.w d4,(a6,-$004C)              0.00% (192, 2304, 0, 0)
000302E0 3D43 FFB6                move.w d3,(a6,-$004A)              0.00% (192, 2304, 0, 0)
000302E4 3D7C 0004 FFB8           move.w #$0004,(a6,-$0048)          0.00% (192, 3072, 0, 0)
000302EA 3D7C 0001 FFBA           move.w #$0001,(a6,-$0046)          0.00% (192, 3072, 0, 0)
000302F0 1D7C 0003 FFBE           move.b #$03,(a6,-$0042)            0.00% (192, 3072, 0, 0)
000302F6 1D7C 0003 FFBF           move.b #$03,(a6,-$0041)            0.00% (192, 3072, 0, 0)
000302FC 1D7C 0003 FFC0           move.b #$03,(a6,-$0040)            0.00% (192, 3072, 0, 0)
00030302 1D7C 0003 FFC1           move.b #$03,(a6,-$003F)            0.00% (192, 3072, 0, 0)
00030308 2D79 0004 D724 FFC2      move.l $0004D724,(a6,-$003E)       0.00% (192, 6144, 0, 0)
00030310 2D79 0004 D728 FFC6      move.l $0004D728,(a6,-$003A)       0.00% (192, 6144, 0, 0)
00030318 2D79 0004 D72C FFCA      move.l $0004D72C,(a6,-$0036)       0.00% (192, 6144, 0, 0)
00030320 3D79 0004 D730 FFCE      move.w $0004D730,(a6,-$0032)       0.00% (192, 4608, 0, 0)
00030328 2D79 0004 D716 FFD0      move.l $0004D716 _etext,(a6,-$0030) 0.00% (192, 6144, 0, 0)
00030330 2D79 0004 D71A FFD4      move.l $0004D71A,(a6,-$002C)       0.00% (192, 6144, 0, 0)
00030338 2D79 0004 D71E FFD8      move.l $0004D71E,(a6,-$0028)       0.00% (192, 6144, 0, 0)
00030340 3D79 0004 D722 FFDC      move.w $0004D722,(a6,-$0024)       0.00% (192, 4608, 0, 0)
00030348 2F0A                     move.l a2,-(a7)                    0.00% (192, 2304, 0, 0)
0003034A 4EB9 0003 2EE0           jsr $00032EE0 _linea7              0.00% (192, 3840, 0, 0)
00030350 4FEF 0010                lea.l (a7,$0010),a7                0.00% (192, 1536, 0, 0)
00030354 4CEE 0CFC FF94           movem.l (a6,-$006C),d2-d7/a2-a3    0.00% (192, 15360, 0, 0)
0003035A 4E5E                     unlk.l a6                          0.00% (192, 2304, 0, 0)
0003035C 4E75                     rts                                0.00% (192, 3072, 0, 0)
[...]
_render_maze:
0003060C 4E56 FFA4                link.w a6,#$FFA4                   0.00% (384, 6144, 0, 0)
00030610 48E7 3F3C                movem.l d2-d7/a2-a5,-(a7)          0.00% (384, 33792, 0, 0)
00030614 246E 000C                movea.l (a6,$000C),a2              0.00% (384, 6144, 0, 0)
00030618 1D6E 000B FFE1           move.b (a6,$000B),(a6,-$001F)      0.00% (384, 7680, 0, 0)
0003061E 3D6E 0022 FFA8           move.w (a6,$0022),(a6,-$0058)      0.00% (384, 7680, 0, 0)
00030624 3D6E 0026 FFAA           move.w (a6,$0026),(a6,-$0056)      0.00% (384, 7680, 0, 0)
0003062A 3A6E 0010                movea.w (a6,$0010),a5              0.00% (384, 4608, 0, 0)
0003062E 3E2E 0012                move.w (a6,$0012),d7               0.00% (384, 4608, 0, 0)
00030632 3D6E 0014 FFEE           move.w (a6,$0014),(a6,-$0012)      0.00% (384, 7680, 0, 0)
00030638 342E 0016                move.w (a6,$0016),d2               0.00% (384, 4608, 0, 0)
0003063C 4A2E FFE1                tst.b (a6,-$001F)                  0.00% (384, 4608, 0, 0)
00030640 6610                     bne.b #$10                         0.00% (384, 3840, 0, 0)
00030642 206E 0028                movea.l (a6,$0028),a0              0.00% (192, 3072, 0, 0)
00030646 3D68 0014 FFA8           move.w (a0,$0014),(a6,-$0058)      0.00% (192, 3840, 0, 0)
0003064C 3D68 0016 FFAA           move.w (a0,$0016),(a6,-$0056)      0.00% (192, 3840, 0, 0)
00030652 226E 0028                movea.l (a6,$0028),a1              0.00% (384, 6144, 0, 0)
00030656 2D69 0010 FFE6           move.l (a1,$0010),(a6,-$001A)      0.00% (384, 10808, 0, 0)
0003065C 206E 002C                movea.l (a6,$002C),a0              0.00% (384, 6144, 0, 0)
00030660 2D68 000C FFC6           move.l (a0,$000C),(a6,-$003A)      0.00% (384, 10752, 0, 0)
00030666 7C00                     moveq #$00,d6                      0.00% (384, 1536, 0, 0)
00030668 3C2E FFAA                move.w (a6,-$0056),d6              0.00% (384, 4608, 0, 0)
0003066C 3A0D                     move.w a5,d5                       0.00% (384, 1536, 0, 0)
0003066E E24D                     lsr.w #$01,d5                      0.00% (384, 3072, 0, 0)
00030670 7800                     moveq #$00,d4                      0.00% (384, 1536, 0, 0)
00030672 3805                     move.w d5,d4                       0.00% (384, 1536, 0, 0)
00030674 7600                     moveq #$00,d3                      0.00% (384, 1536, 0, 0)
00030676 3602                     move.w d2,d3                       0.00% (384, 1536, 0, 0)
00030678 47F9 0003 0F26           lea.l $00030F26 ___divsi3,a3       0.00% (384, 4608, 0, 0)
0003067E 2F03                     move.l d3,-(a7)                    0.00% (384, 4608, 0, 0)
00030680 2006                     move.l d6,d0                       0.00% (384, 1536, 0, 0)
00030682 9084                     sub.l d4,d0                        0.00% (384, 3072, 0, 0)
00030684 2F00                     move.l d0,-(a7)                    0.00% (384, 4608, 0, 0)
00030686 4E93                     jsr (a3) _render_maze              0.00% (384, 6144, 0, 0)
00030688 508F                     addaq.l #$08,a7                    0.00% (384, 3072, 0, 0)
0003068A 2D40 FFE2                move.l d0,(a6,-$001E)              0.00% (384, 6144, 0, 0)
0003068E 3D40 FFFC                move.w d0,(a6,-$0004)              0.00% (384, 4608, 0, 0)
00030692 2F03                     move.l d3,-(a7)                    0.00% (384, 4608, 0, 0)
00030694 2046                     movea.l d6,a0                      0.00% (384, 1536, 0, 0)
00030696 4870 4800                pea.l (a0,d4.l,$00)                0.00% (384, 9216, 0, 0)
0003069A 4E93                     jsr (a3) _render_maze              0.00% (384, 6144, 0, 0)
0003069C 508F                     addaq.l #$08,a7                    0.00% (384, 3072, 0, 0)
0003069E 3040                     movea.w d0,a0                      0.00% (384, 1536, 0, 0)
000306A0 3240                     movea.w d0,a1                      0.00% (384, 1536, 0, 0)
000306A2 5449                     addaq.w #$02,a1                    0.00% (384, 3072, 0, 0)
000306A4 3D49 FFF8                move.w a1,(a6,-$0008)              0.00% (384, 4608, 0, 0)
000306A8 7000                     moveq #$00,d0                      0.00% (384, 1536, 0, 0)
000306AA 302E FFA8                move.w (a6,-$0058),d0              0.00% (384, 4608, 0, 0)
000306AE 2840                     movea.l d0,a4                      0.00% (384, 1536, 0, 0)
000306B0 3807                     move.w d7,d4                       0.00% (384, 1536, 0, 0)
000306B2 E24C                     lsr.w #$01,d4                      0.00% (384, 3072, 0, 0)
000306B4 7E00                     moveq #$00,d7                      0.00% (384, 1536, 0, 0)
000306B6 3E04                     move.w d4,d7                       0.00% (384, 1536, 0, 0)
000306B8 2F03                     move.l d3,-(a7)                    0.00% (384, 4608, 0, 0)
000306BA 9087                     sub.l d7,d0                        0.00% (384, 3072, 0, 0)
000306BC 2F00                     move.l d0,-(a7)                    0.00% (384, 4608, 0, 0)
000306BE 2D48 FFA4                move.l a0,(a6,-$005C)              0.00% (384, 6144, 0, 0)
000306C2 4E93                     jsr (a3) _render_maze              0.00% (384, 6144, 0, 0)
000306C4 508F                     addaq.l #$08,a7                    0.00% (384, 3072, 0, 0)
000306C6 3C00                     move.w d0,d6                       0.00% (384, 1536, 0, 0)
000306C8 5346                     subq.w #$01,d6                     0.00% (384, 1536, 0, 0)
000306CA 2F03                     move.l d3,-(a7)                    0.00% (384, 4608, 0, 0)
000306CC 4874 7800                pea.l (a4,d7.l,$00)                0.00% (384, 9216, 0, 0)
000306D0 4E93                     jsr (a3) _render_maze              0.00% (384, 6144, 0, 0)
000306D2 508F                     addaq.l #$08,a7                    0.00% (384, 3072, 0, 0)
000306D4 3E00                     move.w d0,d7                       0.00% (384, 1536, 0, 0)
000306D6 322E FFA8                move.w (a6,-$0058),d1              0.00% (384, 4608, 0, 0)
000306DA 9244                     sub.w d4,d1                        0.00% (384, 1536, 0, 0)
000306DC 3801                     move.w d1,d4                       0.00% (384, 1592, 0, 0)
000306DE 302E FFAA                move.w (a6,-$0056),d0              0.00% (384, 4608, 0, 0)
000306E2 9045                     sub.w d5,d0                        0.00% (384, 1536, 0, 0)
000306E4 206E FFA4                movea.l (a6,-$005C),a0             0.00% (384, 6144, 0, 0)
000306E8 4A40                     tst.w d0                           0.00% (384, 1536, 0, 0)
000306EA 6F00 0358                ble.w #$0358                       0.00% (384, 4608, 0, 0)
000306EE 322E FFAA                move.w (a6,-$0056),d1              0.00% (384, 4608, 0, 0)
000306F2 0281 0000 FFFF           and.l #$0000FFFF,d1                0.00% (384, 6144, 0, 0)
000306F8 82C2                     divu.w d2,d1                       0.00% (384, 51104, 0, 0)
000306FA 2001                     move.l d1,d0                       0.00% (384, 1536, 0, 0)
000306FC 4840                     swap.w d0                          0.00% (384, 1592, 0, 0)
000306FE 4440                     neg.w d0                           0.00% (384, 1536, 0, 0)
00030700 322E FFA8                move.w (a6,-$0058),d1              0.00% (384, 4608, 0, 0)
00030704 0241 001F                and.w #$001F,d1                    0.00% (384, 3072, 0, 0)
00030708 3D41 FFCC                move.w d1,(a6,-$0034)              0.00% (384, 4608, 0, 0)
0003070C 2D7C 0003 0A6C FFC2      move.l #$00030A6C,(a6,-$003E)      0.00% (384, 9272, 0, 0)
00030714 4A2E FFE1                tst.b (a6,-$001F)                  0.00% (384, 4608, 0, 0)
00030718 6712                     beq.b #$12                         0.00% (384, 3840, 0, 0)
0003071A 4481                     neg.l d1                           0.00% (192, 1152, 0, 0)
0003071C 0241 000F                and.w #$000F,d1                    0.00% (192, 1920, 0, 0)
00030720 C2FC 00A0                mulu.w #$00A0,d1                   0.00% (192, 8832, 0, 0)
00030724 D2AE FFC6                add.l (a6,-$003A),d1               0.00% (192, 3840, 0, 0)
00030728 2D41 FFC2                move.l d1,(a6,-$003E)              0.00% (192, 3512, 0, 0)
0003072C 0C44 FFB1                cmp.w #$FFB1,d4                    0.00% (384, 3072, 0, 0)
00030730 6D00 0286                blt.w #$0286                       0.00% (384, 4608, 0, 0)
00030734 0C44 FFC1                cmp.w #$FFC1,d4                    0.00% (384, 3072, 0, 0)
00030738 6D00 02FA                blt.w #$02FA                       0.00% (384, 4608, 0, 0)
0003073C 0C44 FFD1                cmp.w #$FFD1,d4                    0.00% (384, 3072, 0, 0)
00030740 6D00 0276                blt.w #$0276                       0.00% (384, 4608, 0, 0)
00030744 0C44 FFE1                cmp.w #$FFE1,d4                    0.00% (384, 3072, 0, 0)
00030748 6D00 02EA                blt.w #$02EA                       0.00% (384, 4608, 0, 0)
0003074C 0C44 FFF1                cmp.w #$FFF1,d4                    0.00% (384, 3072, 0, 0)
00030750 6D00 0266                blt.w #$0266                       0.00% (384, 4608, 0, 0)
00030754 4A44                     tst.w d4                           0.00% (384, 1536, 0, 0)
00030756 6D00 02DC                blt.w #$02DC                       0.00% (384, 4608, 0, 0)
0003075A 4A6E FFCC                tst.w (a6,-$0034)                  0.00% (384, 4608, 0, 0)
0003075E 6700 0300                beq.w #$0300                       0.00% (384, 4608, 0, 0)
00030762 0C6E 000F FFCC           cmp.w #$000F,(a6,-$0034)           0.00% (384, 6144, 0, 0)
00030768 6200 02CA                bhi.w #$02CA                       0.00% (384, 4608, 0, 0)
[...]
0003077C 322E FFCC                move.w (a6,-$0034),d1              0.00% (384, 4608, 0, 0)
00030780 5341                     subq.w #$01,d1                     0.00% (384, 1536, 0, 0)
00030782 0C41 000F                cmp.w #$000F,d1                    0.00% (384, 3072, 0, 0)
00030786 6204                     bhi.b #$04                         0.00% (384, 4608, 0, 0)
[...]
0003078C 322E FFF8                move.w (a6,-$0008),d1              0.00% (384, 4608, 0, 0)
00030790 B26E FFFC                cmp.w (a6,-$0004),d1               0.00% (384, 4608, 0, 0)
00030794 6F00 0202                ble.w #$0202                       0.00% (384, 4608, 0, 0)
00030798 3202                     move.w d2,d1                       0.00% (384, 1536, 0, 0)
0003079A C2FC 00A0                mulu.w #$00A0,d1                   0.00% (384, 17664, 0, 0)
0003079E 2D41 FFB6                move.l d1,(a6,-$004A)              0.00% (384, 6912, 0, 0)
000307A2 320D                     move.w a5,d1                       0.00% (384, 1536, 0, 0)
000307A4 C2FC 00A0                mulu.w #$00A0,d1                   0.00% (384, 17664, 0, 0)
000307A8 2D41 FFAE                move.l d1,(a6,-$0052)              0.00% (384, 6912, 0, 0)
000307AC D2AE FFE6                add.l (a6,-$001A),d1               0.00% (384, 6912, 0, 0)
000307B0 2D41 FFF2                move.l d1,(a6,-$000E)              0.00% (384, 6912, 0, 0)
000307B4 C5FC 00A0                muls.w #$00A0,d2                   0.00% (384, 19200, 0, 0)
000307B8 3D42 FFDE                move.w d2,(a6,-$0022)              0.00% (384, 5376, 0, 0)
000307BC C1FC 00A0                muls.w #$00A0,d0                   0.00% (384, 19200, 0, 0)
000307C0 3D40 FFF6                move.w d0,(a6,-$000A)              0.00% (384, 5376, 0, 0)
000307C4 326E FFFC                movea.w (a6,-$0004),a1             0.00% (384, 4608, 0, 0)
000307C8 2D49 FFD0                move.l a1,(a6,-$0030)              0.00% (384, 6144, 0, 0)
000307CC 47F1 9800                lea.l (a1,a1.l,$00),a3             0.00% (384, 6144, 0, 0)
000307D0 D7CB                     adda.l a3,a3                       0.00% (384, 3072, 0, 0)
000307D2 302E FFE4                move.w (a6,-$001C),d0              0.00% (384, 4608, 0, 0)
000307D6 3D40 FFE2                move.w d0,(a6,-$001E)              0.00% (384, 4608, 0, 0)
000307DA 3008                     move.w a0,d0                       0.00% (384, 1536, 0, 0)
000307DC 5240                     addq.w #$01,d0                     0.00% (384, 1536, 0, 0)
000307DE 906E FFE2                sub.w (a6,-$001E),d0               0.00% (384, 4664, 0, 0)
000307E2 0280 0000 FFFF           and.l #$0000FFFF,d0                0.00% (384, 6144, 0, 0)
000307E8 5280                     addq.l #$01,d0                     0.00% (384, 3072, 0, 0)
000307EA 2D40 FFDA                move.l d0,(a6,-$0026)              0.00% (384, 6144, 0, 0)
000307EE 42AE FFF8                clr.l (a6,-$0008)                  0.00% (384, 9216, 0, 0)
000307F2 3846                     movea.w d6,a4                      0.00% (384, 1536, 0, 0)
000307F4 41F4 C800                lea.l (a4,a4.l,$00),a0             0.00% (384, 6144, 0, 0)
000307F8 2D48 FFB2                move.l a0,(a6,-$004E)              0.00% (384, 6144, 0, 0)
000307FC 326E FFCC                movea.w (a6,-$0034),a1             0.00% (384, 4608, 0, 0)
00030800 43E9 001E                lea.l (a1,$001E),a1                0.00% (384, 3128, 0, 0)
00030804 3D49 FFCE                move.w a1,(a6,-$0032)              0.00% (384, 4608, 0, 0)
00030808 7200                     moveq #$00,d1                      0.00% (384, 1536, 0, 0)
0003080A 322E FFEE                move.w (a6,-$0012),d1              0.00% (384, 4608, 0, 0)
0003080E 2D41 FFEA                move.l d1,(a6,-$0016)              0.00% (384, 6144, 0, 0)
00030812 306E FFCC                movea.w (a6,-$0034),a0             0.00% (384, 4608, 0, 0)
00030816 41E8 0046                lea.l (a0,$0046),a0                0.00% (384, 3072, 0, 0)
0003081A 3D48 FFAC                move.w a0,(a6,-$0054)              0.00% (384, 4608, 0, 0)
0003081E 2D4C FFFC                move.l a4,(a6,-$0004)              0.00% (384, 6200, 0, 0)
00030822 302E FFFA                move.w (a6,-$0006),d0              0.02% (3072, 36864, 0, 0)
00030826 D06E FFE2                add.w (a6,-$001E),d0               0.02% (3072, 36864, 0, 0)
0003082A 6B00 0152                bmi.w #$0152                       0.02% (3072, 36864, 0, 0)
0003082E 7200                     moveq #$00,d1                      0.02% (3072, 12288, 0, 0)
00030830 322A 0006                move.w (a2,$0006),d1               0.02% (3072, 36864, 0, 0)
00030834 202E FFF8                move.l (a6,-$0008),d0              0.02% (3072, 49208, 0, 0)
00030838 D0AE FFD0                add.l (a6,-$0030),d0               0.02% (3072, 55296, 0, 0)
0003083C B081                     cmp.l d1,d0                        0.02% (3072, 24576, 0, 0)
0003083E 6C00 013E                bge.w #$013E                       0.02% (3072, 43008, 0, 0)
00030842 BE46                     cmp.w d6,d7                        0.02% (3072, 12288, 0, 0)
00030844 6D00 0138                blt.w #$0138                       0.02% (3072, 36864, 0, 0)
00030848 326E FFF6                movea.w (a6,-$000A),a1             0.02% (3072, 36864, 0, 0)
0003084C 2D49 FFEE                move.l a1,(a6,-$0012)              0.02% (3072, 49152, 0, 0)
00030850 2849                     movea.l a1,a4                      0.02% (3072, 12288, 0, 0)
00030852 D9EE FFB6                adda.l (a6,-$004A),a4              0.02% (3072, 55404, 0, 0)
00030856 D3EE FFE6                adda.l (a6,-$001A),a1              0.02% (3072, 61436, 0, 0)
0003085A 2D49 FFBA                move.l a1,(a6,-$0046)              0.02% (3072, 55296, 0, 0)
0003085E 262E FFB2                move.l (a6,-$004E),d3              0.02% (3072, 49208, 0, 0)
00030862 382E FFC0                move.w (a6,-$0040),d4              0.02% (3072, 36864, 0, 0)
00030866 3A2E FFBE                move.w (a6,-$0042),d5              0.02% (3072, 36864, 0, 0)
0003086A 7400                     moveq #$00,d2                      0.02% (3072, 12288, 0, 0)
0003086C 3D47 FFD8                move.w d7,(a6,-$0028)              0.02% (3072, 36864, 0, 0)
00030870 3006                     move.w d6,d0                       0.14% (27648, 110592, 0, 0)
00030872 D042                     add.w d2,d0                        0.14% (27648, 110704, 0, 0)
00030874 6B00 00EC                bmi.w #$00EC                       0.14% (27648, 332000, 0, 0)
00030878 222E FFFC                move.l (a6,-$0004),d1              0.14% (27648, 442536, 0, 0)
0003087C D282                     add.l d2,d1                        0.14% (27648, 221184, 0, 0)
0003087E 7E00                     moveq #$00,d7                      0.14% (27648, 110592, 0, 0)
00030880 3E2A 0004                move.w (a2,$0004),d7               0.14% (27648, 331888, 0, 0)
00030884 2047                     movea.l d7,a0                      0.14% (27648, 110648, 0, 0)
00030886 B288                     cmp.l a0,d1                        0.14% (27648, 165888, 0, 0)
00030888 6C00 00D8                bge.w #$00D8                       0.14% (27648, 387072, 0, 0)
0003088C 2252                     movea.l (a2),a1                    0.14% (27648, 331776, 0, 0)
0003088E 2271 B800                movea.l (a1,a3.l,$00),a1           0.14% (27648, 553128, 0, 0)
00030892 0831 0000 3801           btst.b #$0000,(a1,d3.l,$01)        0.14% (27648, 553016, 0, 0)
00030898 6754                     beq.b #$54                         0.14% (27648, 322208, 0, 0)
0003089A 4A44                     tst.w d4                           0.01% (2406, 9624, 0, 0)
0003089C 6D00 00C4                blt.w #$00C4                       0.01% (2406, 28928, 0, 0)
000308A0 3A44                     movea.w d4,a5                      0.01% (2406, 9624, 0, 0)
000308A2 BBEE FFEA                cmpa.l (a6,-$0016),a5              0.01% (2406, 43308, 0, 0)
000308A6 6C00 00BA                bge.w #$00BA                       0.01% (2406, 29236, 0, 0)
000308AA B9EE FFEE                cmpa.l (a6,-$0012),a4              0.01% (1280, 23094, 0, 0)
000308AE 6F3E                     ble.b #$3E                         0.01% (1280, 12798, 0, 0)
000308B0 DBEE FFE6                adda.l (a6,-$001A),a5              0.01% (1280, 23040, 0, 0)
000308B4 206E FFEE                movea.l (a6,-$0012),a0             0.01% (1280, 23040, 0, 0)
000308B8 D1CD                     adda.l a5,a0                       0.01% (1280, 10240, 0, 0)
000308BA 2D42 FFD4                move.l d2,(a6,-$002C)              0.01% (1280, 20480, 0, 0)
000308BE 242E FFE6                move.l (a6,-$001A),d2              0.01% (1280, 20480, 0, 0)
000308C2 2E0A                     move.l a2,d7                       0.01% (1280, 5120, 0, 0)
000308C4 246E FFC2                movea.l (a6,-$003E),a2             0.01% (1280, 20536, 0, 0)
000308C8 B488                     cmp.l a0,d2                        0.21% (40960, 245760, 0, 0)
000308CA 6208                     bhi.b #$08                         0.21% (40960, 409768, 0, 0)
000308CC B1EE FFF2                cmpa.l (a6,-$000E),a0              0.20% (38281, 689382, 0, 0)
000308D0 6300 00FA                bls.w #$00FA                       0.20% (38281, 398114, 0, 0)
000308D4 41E8 00A0                lea.l (a0,$00A0),a0                0.03% (6446, 51568, 0, 0)
000308D8 2248                     movea.l a0,a1                      0.03% (6446, 25784, 0, 0)
000308DA 93CD                     suba.l a5,a1                       0.03% (6446, 51568, 0, 0)
000308DC B9C9                     cmpa.l a1,a4                       0.03% (6446, 38676, 0, 0)
000308DE 6EE8                     bgt.b #$E8                         0.03% (6446, 64460, 0, 0)
000308E0 242E FFD4                move.l (a6,-$002C),d2              0.01% (1280, 20480, 0, 0)
000308E4 2447                     movea.l d7,a2                      0.01% (1280, 5176, 0, 0)
000308E6 7E00                     moveq #$00,d7                      0.01% (1280, 5120, 0, 0)
000308E8 3E2A 0004                move.w (a2,$0004),d7               0.01% (1280, 15360, 0, 0)
000308EC 2047                     movea.l d7,a0                      0.01% (1280, 5120, 0, 0)
000308EE 4A40                     tst.w d0                           0.14% (26522, 106144, 0, 0)
000308F0 6700 0136                beq.w #$0136                       0.14% (26522, 318320, 0, 0)
000308F4 2252                     movea.l (a2),a1                    0.14% (26522, 318320, 0, 0)
000308F6 2271 B800                movea.l (a1,a3.l,$00),a1           0.14% (26522, 530664, 0, 0)
000308FA 0831 0001 38FF           btst.b #$0001,(a1,d3.l,$ff)        0.14% (26522, 530776, 0, 0)
00030900 56C0                     sne.b d0                           0.14% (26522, 111834, 0, 0)
00030902 4400                     neg.b d0                           0.14% (26522, 111666, 0, 0)
00030904 5388                     subaq.l #$01,a0                    0.14% (26522, 212176, 0, 0)
00030906 B288                     cmp.l a0,d1                        0.14% (26522, 159132, 0, 0)
00030908 6C00 0110                bge.w #$0110                       0.14% (26522, 371420, 0, 0)
0003090C 2052                     movea.l (a2),a0                    0.14% (26522, 318376, 0, 0)
0003090E 2070 B800                movea.l (a0,a3.l,$00),a0           0.14% (26522, 530552, 0, 0)
00030912 0830 0001 3801           btst.b #$0001,(a0,d3.l,$01)        0.14% (26522, 530664, 0, 0)
00030918 6700 0100                beq.w #$0100                       0.14% (26522, 318488, 0, 0)
0003091C 4A6E FFCC                tst.w (a6,-$0034)                  0.01% (2816, 33792, 0, 0)
00030920 6700 010C                beq.w #$010C                       0.01% (2816, 33792, 0, 0)
00030924 4A00                     tst.b d0                           0.01% (2816, 11264, 0, 0)
00030926 6600 0106                bne.w #$0106                       0.01% (2816, 33792, 0, 0)
0003092A 302E FFAC                move.w (a6,-$0054),d0              0.01% (2432, 29184, 0, 0)
0003092E 223C 0003 0A6C           move.l #$00030A6C,d1               0.03% (5222, 62664, 0, 0)
00030934 4A2E FFE1                tst.b (a6,-$001F)                  0.03% (5222, 62664, 0, 0)
00030938 670A                     beq.b #$0A                         0.03% (5222, 52224, 0, 0)
0003093A C0FC 00A0                mulu.w #$00A0,d0                   0.01% (2610, 120114, 0, 0)
0003093E 222E FFC6                move.l (a6,-$003A),d1              0.01% (2610, 46978, 0, 0)
00030942 D280                     add.l d0,d1                        0.01% (2610, 20880, 0, 0)
00030944 4A45                     tst.w d5                           0.03% (5222, 20888, 0, 0)
00030946 6D1A                     blt.b #$1A                         0.03% (5222, 41776, 0, 0)
00030948 3045                     movea.w d5,a0                      0.03% (5222, 20888, 0, 0)
0003094A B1EE FFEA                cmpa.l (a6,-$0016),a0              0.03% (5222, 93996, 0, 0)
0003094E 6C12                     bge.b #$12                         0.03% (5222, 52220, 0, 0)
00030950 4A6E FFF6                tst.w (a6,-$000A)                  0.02% (3826, 45912, 0, 0)
00030954 6D0C                     blt.b #$0C                         0.02% (3826, 33544, 0, 0)
00030956 226E FFEE                movea.l (a6,-$0012),a1             0.02% (3092, 49472, 0, 0)
0003095A B3EE FFAE                cmpa.l (a6,-$0052),a1              0.02% (3092, 55656, 0, 0)
0003095E 6F00 0086                ble.w #$0086                       0.02% (3092, 31496, 0, 0)
00030962 5282                     addq.l #$01,d2                     0.13% (24700, 197600, 0, 0)
00030964 0645 0010                add.w #$0010,d5                    0.13% (24700, 197600, 0, 0)
00030968 5483                     addq.l #$02,d3                     0.13% (24700, 197600, 0, 0)
0003096A 0644 0010                add.w #$0010,d4                    0.13% (24700, 197656, 0, 0)
0003096E 3006                     move.w d6,d0                       0.13% (24700, 98856, 0, 0)
00030970 D042                     add.w d2,d0                        0.13% (24700, 98800, 0, 0)
00030972 B06E FFD8                cmp.w (a6,-$0028),d0               0.13% (24700, 296568, 0, 0)
00030976 6F00 FEF8                ble.w #$FEF8                       0.13% (24700, 296512, 0, 0)
0003097A 3E2E FFD8                move.w (a6,-$0028),d7              0.02% (3072, 36864, 0, 0)
0003097E 52AE FFF8                addq.l #$01,(a6,-$0008)            0.02% (3072, 73728, 0, 0)
00030982 322E FFDE                move.w (a6,-$0022),d1              0.02% (3072, 36864, 0, 0)
00030986 D36E FFF6                add.w d1,(a6,-$000A)               0.02% (3072, 49152, 0, 0)
0003098A 588B                     addaq.l #$04,a3                    0.02% (3072, 24632, 0, 0)
0003098C 206E FFF8                movea.l (a6,-$0008),a0             0.02% (3072, 49152, 0, 0)
00030990 B1EE FFDA                cmpa.l (a6,-$0026),a0              0.02% (3072, 55296, 0, 0)
00030994 6600 FE8C                bne.w #$FE8C                       0.02% (3072, 32256, 0, 0)
00030998 4A2E FFE1                tst.b (a6,-$001F)                  0.00% (384, 4608, 0, 0)
0003099C 6710                     beq.b #$10                         0.00% (384, 3840, 0, 0)
0003099E 226E 0028                movea.l (a6,$0028),a1              0.00% (192, 3072, 0, 0)
000309A2 336E FFA8 0014           move.w (a6,-$0058),(a1,$0014)      0.00% (192, 3840, 0, 0)
000309A8 336E FFAA 0016           move.w (a6,-$0056),(a1,$0016)      0.00% (192, 3840, 0, 0)
000309AE 4CEE 3CFC FF7C           movem.l (a6,-$0084),d2-d7/a2-a5    0.00% (384, 36864, 0, 0)
000309B4 4E5E                     unlk.l a6                          0.00% (384, 4608, 0, 0)
000309B6 4E75                     rts                                0.00% (384, 6144, 0, 0)
[...]
000309CC 1092                     move.b (a2),(a0)                   0.18% (34514, 414392, 0, 0)
000309CE 116A 0001 0001           move.b (a2,$0001),(a0,$0001)       0.18% (34514, 690728, 0, 0)
000309D4 41E8 00A0                lea.l (a0,$00A0),a0                0.18% (34514, 276336, 0, 0)
000309D8 2248                     movea.l a0,a1                      0.18% (34514, 138112, 0, 0)
000309DA 93CD                     suba.l a5,a1                       0.18% (34514, 276168, 0, 0)
000309DC B9C9                     cmpa.l a1,a4                       0.18% (34514, 207138, 0, 0)
000309DE 6E00 FEE8                bgt.w #$FEE8                       0.18% (34514, 349294, 0, 0)
000309E2 6000 FEFC                bra.w #$FEFC                       0.01% (1038, 12512, 0, 0)
000309E6 4878 0010                pea.l $00000010.w                  0.02% (2948, 47224, 0, 0)
000309EA 2F01                     move.l d1,-(a7)                    0.02% (2948, 35488, 0, 0)
000309EC 222E FFBA                move.l (a6,-$0046),d1              0.02% (2948, 47168, 0, 0)
000309F0 4870 1800                pea.l (a0,d1.l,$00)                0.02% (2948, 70752, 0, 0)
000309F4 4EB9 0003 AE42           jsr $0003AE42 _memcpy              0.02% (2948, 59016, 0, 0)
000309FA 4FEF 000C                lea.l (a7,$000C),a7                0.02% (2948, 23640, 0, 0)
000309FE 5282                     addq.l #$01,d2                     0.02% (2948, 23584, 0, 0)
00030A00 0645 0010                add.w #$0010,d5                    0.02% (2948, 23584, 0, 0)
00030A04 5483                     addq.l #$02,d3                     0.02% (2948, 23584, 0, 0)
00030A06 0644 0010                add.w #$0010,d4                    0.02% (2948, 23584, 0, 0)
00030A0A 3006                     move.w d6,d0                       0.02% (2948, 11792, 0, 0)
00030A0C D042                     add.w d2,d0                        0.02% (2948, 11792, 0, 0)
00030A0E B06E FFD8                cmp.w (a6,-$0028),d0               0.02% (2948, 35432, 0, 0)
00030A12 6F00 FE5C                ble.w #$FE5C                       0.02% (2948, 35432, 0, 0)
[...]
00030A1A 4A00                     tst.b d0                           0.12% (23706, 94936, 0, 0)
00030A1C 6700 FF44                beq.w #$FF44                       0.12% (23706, 284472, 0, 0)
00030A20 302E FFCE                move.w (a6,-$0032),d0              0.01% (2406, 28928, 0, 0)
00030A24 6000 FF08                bra.w #$FF08                       0.01% (2406, 28872, 0, 0)
[...]
00030A2E 706E                     moveq #$6E,d0                      0.00% (384, 1536, 0, 0)
00030A30 6000 FEFC                bra.w #$FEFC                       0.00% (384, 4608, 0, 0)
00030A34 327C 0008                movea.w #$0008,a1                  0.00% (384, 3072, 0, 0)
00030A38 426E FFC0                clr.w (a6,-$0040)                  0.00% (384, 6144, 0, 0)
00030A3C 426E FFBE                clr.w (a6,-$0042)                  0.00% (384, 6144, 0, 0)
00030A40 6000 FD3A                bra.w #$FD3A                       0.00% (384, 4608, 0, 0)
[...]
_render_sprite:
00030A96 4E56 0000                link.w a6,#$0000                   0.00% (192, 3072, 0, 0)
00030A9A 2F0A                     move.l a2,-(a7)                    0.00% (192, 2304, 0, 0)
00030A9C 206E 0008                movea.l (a6,$0008),a0              0.00% (192, 3072, 0, 0)
00030AA0 302E 000E                move.w (a6,$000E),d0               0.00% (192, 2304, 0, 0)
00030AA4 3268 0012                movea.w (a0,$0012),a1              0.00% (192, 2304, 0, 0)
00030AA8 42A7                     clr.l -(a7)                        0.00% (192, 4608, 0, 0)
00030AAA 346E 0016                movea.w (a6,$0016),a2              0.00% (192, 2304, 0, 0)
00030AAE 2F0A                     move.l a2,-(a7)                    0.00% (192, 2304, 0, 0)
00030AB0 346E 0012                movea.w (a6,$0012),a2              0.00% (192, 2304, 0, 0)
00030AB4 2F0A                     move.l a2,-(a7)                    0.00% (192, 2304, 0, 0)
00030AB6 246E 0018                movea.l (a6,$0018),a2              0.00% (192, 3072, 0, 0)
00030ABA 2F2A 0010                move.l (a2,$0010),-(a7)            0.00% (192, 4608, 0, 0)
00030ABE 3449                     movea.w a1,a2                      0.00% (192, 768, 0, 0)
00030AC0 2F0A                     move.l a2,-(a7)                    0.00% (192, 2304, 0, 0)
00030AC2 3468 001A                movea.w (a0,$001A),a2              0.00% (192, 2304, 0, 0)
00030AC6 2F0A                     move.l a2,-(a7)                    0.00% (192, 2304, 0, 0)
00030AC8 3200                     move.w d0,d1                       0.00% (192, 768, 0, 0)
00030ACA C3E8 0016                muls.w (a0,$0016),d1               0.00% (192, 8832, 0, 0)
00030ACE D249                     add.w a1,d1                        0.00% (192, 1152, 0, 0)
00030AD0 3241                     movea.w d1,a1                      0.00% (192, 768, 0, 0)
00030AD2 2F09                     move.l a1,-(a7)                    0.00% (192, 2304, 0, 0)
00030AD4 C1E8 0014                muls.w (a0,$0014),d0               0.00% (192, 9600, 0, 0)
00030AD8 D068 0010                add.w (a0,$0010),d0                0.00% (192, 2688, 0, 0)
00030ADC 3440                     movea.w d0,a2                      0.00% (192, 768, 0, 0)
00030ADE 2F0A                     move.l a2,-(a7)                    0.00% (192, 2304, 0, 0)
00030AE0 2F28 000C                move.l (a0,$000C),-(a7)            0.00% (192, 4608, 0, 0)
00030AE4 4EB9 0003 0276           jsr $00030276 _lineablit           0.00% (192, 3840, 0, 0)
00030AEA 4FEF 0024                lea.l (a7,$0024),a7                0.00% (192, 1536, 0, 0)
00030AEE 246E FFFC                movea.l (a6,-$0004),a2             0.00% (192, 3072, 0, 0)
00030AF2 4E5E                     unlk.l a6                          0.00% (192, 2304, 0, 0)
00030AF4 4E75                     rts                                0.00% (192, 3072, 0, 0)
[...]
00030DD8 3F3C 0025                move.w #$0025,-(a7)                0.00% (192, 2304, 0, 0)
00030DDC 4E4E                     trap #$0E                          0.00% (192, 6912, 0, 0)
00030DDE 548F                     addaq.l #$02,a7                    0.00% (192, 1536, 0, 0)
00030DE0 243C 0000 01F4           move.l #$000001F4,d2               0.00% (192, 2304, 0, 0)
00030DE6 9484                     sub.l d4,d2                        0.00% (192, 1536, 0, 0)
00030DE8 42A7                     clr.l -(a7)                        0.00% (192, 4608, 0, 0)
00030DEA 42A7                     clr.l -(a7)                        0.00% (192, 4608, 0, 0)
00030DEC 2F0D                     move.l a5,-(a7)                    0.00% (192, 2360, 0, 0)
00030DEE 2F06                     move.l d6,-(a7)                    0.00% (192, 2304, 0, 0)
00030DF0 2F02                     move.l d2,-(a7)                    0.00% (192, 2304, 0, 0)
00030DF2 4878 01F4                pea.l $000001F4.w                  0.00% (192, 3072, 0, 0)
00030DF6 4FEF FFF0                lea.l (a7,-$0010),a7               0.00% (192, 1536, 0, 0)
00030DFA 200F                     move.l a7,d0                       0.00% (192, 768, 0, 0)
00030DFC 4878 0010                pea.l $00000010.w                  0.00% (192, 3072, 0, 0)
00030E00 2F05                     move.l d5,-(a7)                    0.00% (192, 2304, 0, 0)
00030E02 2F00                     move.l d0,-(a7)                    0.00% (192, 2304, 0, 0)
00030E04 45F9 0003 AE42           lea.l $0003AE42 _memcpy,a2         0.00% (192, 2304, 0, 0)
00030E0A 4E94                     jsr (a4) _memcpy                   0.00% (192, 3072, 0, 0)
00030E0C 508F                     addaq.l #$08,a7                    0.00% (192, 1536, 0, 0)
00030E0E 2E87                     move.l d7,(a7)                     0.00% (192, 2304, 0, 0)
00030E10 42A7                     clr.l -(a7)                        0.00% (192, 4664, 0, 0)
00030E12 4E93                     jsr (a3) _render_maze              0.00% (192, 3072, 0, 0)
00030E14 4FEF 002C                lea.l (a7,$002C),a7                0.00% (192, 1536, 0, 0)
00030E18 4297                     clr.l (a7)                         0.00% (192, 3840, 0, 0)
00030E1A 42A7                     clr.l -(a7)                        0.00% (192, 4608, 0, 0)
00030E1C 2F0D                     move.l a5,-(a7)                    0.00% (192, 2304, 0, 0)
00030E1E 2F06                     move.l d6,-(a7)                    0.00% (192, 2304, 0, 0)
00030E20 2F02                     move.l d2,-(a7)                    0.00% (192, 2304, 0, 0)
00030E22 4878 01F4                pea.l $000001F4.w                  0.00% (192, 3072, 0, 0)
00030E26 4FEF FFF0                lea.l (a7,-$0010),a7               0.00% (192, 1536, 0, 0)
00030E2A 200F                     move.l a7,d0                       0.00% (192, 768, 0, 0)
00030E2C 4878 0010                pea.l $00000010.w                  0.00% (192, 3072, 0, 0)
00030E30 2F05                     move.l d5,-(a7)                    0.00% (192, 2304, 0, 0)
00030E32 2F00                     move.l d0,-(a7)                    0.00% (192, 2304, 0, 0)
00030E34 4E94                     jsr (a4) _memcpy                   0.00% (192, 3072, 0, 0)
00030E36 508F                     addaq.l #$08,a7                    0.00% (192, 1536, 0, 0)
00030E38 2E87                     move.l d7,(a7)                     0.00% (192, 2304, 0, 0)
00030E3A 4878 0001                pea.l $00000001.w                  0.00% (192, 3072, 0, 0)
00030E3E 4E93                     jsr (a3) _render_maze              0.00% (192, 3072, 0, 0)
00030E40 4FEF 002C                lea.l (a7,$002C),a7                0.00% (192, 1536, 0, 0)
00030E44 2E86                     move.l d6,(a7)                     0.00% (192, 2304, 0, 0)
00030E46 4878 0064                pea.l $00000064.w                  0.00% (192, 3072, 0, 0)
00030E4A 4878 0064                pea.l $00000064.w                  0.00% (192, 3072, 0, 0)
00030E4E 4878 001E                pea.l $0000001E.w                  0.00% (192, 3072, 0, 0)
00030E52 2F04                     move.l d4,-(a7)                    0.00% (192, 2304, 0, 0)
00030E54 4EB9 0003 0F26           jsr $00030F26 ___divsi3            0.00% (192, 3840, 0, 0)
00030E5A 508F                     addaq.l #$08,a7                    0.00% (192, 1536, 0, 0)
00030E5C 7207                     moveq #$07,d1                      0.00% (192, 768, 0, 0)
00030E5E C280                     and.l d0,d1                        0.00% (192, 1536, 0, 0)
00030E60 2F01                     move.l d1,-(a7)                    0.00% (192, 2304, 0, 0)
00030E62 486E FF5A                pea.l (a6,-$00A6)                  0.00% (192, 3072, 0, 0)
00030E66 4EB9 0003 0A96           jsr $00030A96 _render_sprite       0.00% (192, 3840, 0, 0)
00030E6C 486E FF90                pea.l (a6,-$0070)                  0.00% (192, 3072, 0, 0)
00030E70 2F06                     move.l d6,-(a7)                    0.00% (192, 2304, 0, 0)
00030E72 4EB9 0003 0182           jsr $00030182 _swap_pages          0.00% (192, 3840, 0, 0)
00030E78 5284                     addq.l #$01,d4                     0.00% (192, 1536, 0, 0)
00030E7A 4FEF 001C                lea.l (a7,$001C),a7                0.00% (192, 1536, 0, 0)
00030E7E 0C84 0000 0154           cmp.l #$00000154,d4                0.00% (192, 2688, 0, 0)
00030E84 6600 FF52                bne.w #$FF52                       0.00% (192, 1920, 0, 0)
[...]
___divsi3:
00030F26 2F02                     move.l d2,-(a7)                    0.01% (1728, 20736, 0, 0)
00030F28 7401                     moveq #$01,d2                      0.01% (1728, 6912, 0, 0)
00030F2A 222F 000C                move.l (a7,$000C),d1               0.01% (1728, 27648, 0, 0)
00030F2E 6A04                     bpl.b #$04                         0.01% (1728, 20736, 0, 0)
[...]
00030F34 202F 0008                move.l (a7,$0008),d0               0.01% (1728, 27648, 0, 0)
00030F38 6A04                     bpl.b #$04                         0.01% (1728, 20736, 0, 0)
[...]
00030F3E 2F01                     move.l d1,-(a7)                    0.01% (1728, 20736, 0, 0)
00030F40 2F00                     move.l d0,-(a7)                    0.01% (1728, 20736, 0, 0)
00030F42 4EB9 0003 1E7E           jsr $00031E7E ___udivsi3           0.01% (1728, 34560, 0, 0)
00030F48 508F                     addaq.l #$08,a7                    0.01% (1728, 13824, 0, 0)
00030F4A 4A02                     tst.b d2                           0.01% (1728, 6912, 0, 0)
00030F4C 6A02                     bpl.b #$02                         0.01% (1728, 20736, 0, 0)
[...]
00030F50 241F                     move.l (a7)+,d2                    0.01% (1728, 20736, 0, 0)
00030F52 4E75                     rts                                0.01% (1728, 27648, 0, 0)
[...]
___udivsi3:
00031E7E 2F02                     move.l d2,-(a7)                    0.01% (1728, 20736, 0, 0)
00031E80 222F 000C                move.l (a7,$000C),d1               0.01% (1728, 27648, 0, 0)
00031E84 202F 0008                move.l (a7,$0008),d0               0.01% (1728, 27648, 0, 0)
00031E88 0C81 0001 0000           cmp.l #$00010000,d1                0.01% (1728, 24246, 0, 0)
00031E8E 6416                     bcc.b #$16                         0.01% (1728, 17334, 0, 0)
00031E90 2400                     move.l d0,d2                       0.01% (1728, 6912, 0, 0)
00031E92 4242                     clr.w d2                           0.01% (1728, 6968, 0, 0)
00031E94 4842                     swap.w d2                          0.01% (1728, 6912, 0, 0)
00031E96 84C1                     divu.w d1,d2                       0.01% (1728, 235120, 0, 0)
00031E98 3002                     move.w d2,d0                       0.01% (1728, 6912, 0, 0)
00031E9A 4840                     swap.w d0                          0.01% (1728, 6912, 0, 0)
00031E9C 342F 000A                move.w (a7,$000A),d2               0.01% (1728, 20736, 0, 0)
00031EA0 84C1                     divu.w d1,d2                       0.01% (1728, 229700, 0, 0)
00031EA2 3002                     move.w d2,d0                       0.01% (1728, 6968, 0, 0)
00031EA4 6030                     bra.b #$30                         0.01% (1728, 20736, 0, 0)
[...]
00031ED6 241F                     move.l (a7)+,d2                    0.01% (1728, 20736, 0, 0)
00031ED8 4E75                     rts                                0.01% (1728, 27648, 0, 0)
[...]
_linea7:
00032EE0 2F02                     move.l d2,-(a7)                    0.00% (192, 2304, 0, 0)
00032EE2 242F 0008                move.l (a7,$0008),d2               0.00% (192, 3072, 0, 0)
00032EE6 48E7 2022                movem.l d2/a2/a6,-(a7)             0.00% (192, 6144, 0, 0)
00032EEA 2C42                     movea.l d2,a6                      0.00% (192, 768, 0, 0)
00032EEC A007                     illegal                            0.00% (192, 6912, 0, 0)
00032EEE 4CDF 4404                movem.l (a7)+,d2/a2/a6             0.00% (192, 6912, 0, 0)
00032EF2 241F                     move.l (a7)+,d2                    0.00% (192, 2304, 0, 0)
00032EF4 4E75                     rts                                0.00% (192, 3072, 0, 0)
[...]
_memcpy:
0003AE42 226F 0004                movea.l (a7,$0004),a1              0.02% (3332, 53312, 0, 0)
0003AE46 206F 0008                movea.l (a7,$0008),a0              0.02% (3332, 53312, 0, 0)
0003AE4A 6008                     bra.b #$08                         0.02% (3332, 40040, 0, 0)
[...]
common:
0003AE54 202F 000C                move.l (a7,$000C),d0               0.02% (3332, 53312, 0, 0)
common2:
0003AE58 6700 00AA                beq.w #$00AA exit                  0.02% (3332, 40040, 0, 0)
0003AE5C 2F02                     move.l d2,-(a7)                    0.02% (3332, 39984, 0, 0)
0003AE5E B3C8                     cmpa.l a0,a1                       0.02% (3332, 19992, 0, 0)
0003AE60 6E00 00D0                bgt.w #$00D0 top_down              0.02% (3332, 40760, 0, 0)
0003AE64 3208                     move.w a0,d1                       0.01% (1860, 7440, 0, 0)
0003AE66 3409                     move.w a1,d2                       0.01% (1860, 7440, 0, 0)
0003AE68 B541                     eor.w d2,d1                        0.01% (1860, 7440, 0, 0)
0003AE6A 0801 0000                btst.l #$0000,d1                   0.01% (1860, 18600, 0, 0)
0003AE6E 6600 009A                bne.w #$009A slow_copy             0.01% (1860, 26096, 0, 0)
0003AE72 0802 0000                btst.l #$0000,d2                   0.01% (1860, 18600, 0, 0)
0003AE76 6704                     beq.b #$04                         0.01% (1860, 18600, 0, 0)
[...]
both_even:
0003AE7C 7200                     moveq #$00,d1                      0.01% (1860, 7440, 0, 0)
0003AE7E 1200                     move.b d0,d1                       0.01% (1860, 7440, 0, 0)
0003AE80 E088                     lsr.l #$08,d0                      0.01% (1860, 44640, 0, 0)
0003AE82 674A                     beq.b #$4A                         0.01% (1860, 22320, 0, 0)
[...]
less256:
0003AECE 3001                     move.w d1,d0                       0.01% (1860, 7440, 0, 0)
0003AED0 E448                     lsr.w #$02,d0                      0.01% (1860, 18600, 0, 0)
0003AED2 671E                     beq.b #$1E                         0.01% (1860, 18600, 0, 0)
0003AED4 3400                     move.w d0,d2                       0.01% (1860, 7440, 0, 0)
0003AED6 4442                     neg.w d2                           0.01% (1860, 7440, 0, 0)
0003AED8 0242 0003                and.w #$0003,d2                    0.01% (1860, 14880, 0, 0)
0003AEDC 5340                     subq.w #$01,d0                     0.01% (1860, 7496, 0, 0)
0003AEDE E448                     lsr.w #$02,d0                      0.01% (1860, 18600, 0, 0)
0003AEE0 D442                     add.w d2,d2                        0.01% (1860, 11160, 0, 0)
0003AEE2 4EFB 2002                jmp (pc,d2.w,$02=$0003aee6)        0.01% (1860, 29760, 0, 0)
copy16:
0003AEE6 22D8                     move.l (a0)+,(a1)+                 0.01% (1860, 37200, 0, 0)
0003AEE8 22D8                     move.l (a0)+,(a1)+                 0.01% (1860, 37200, 0, 0)
0003AEEA 22D8                     move.l (a0)+,(a1)+                 0.01% (1860, 37200, 0, 0)
0003AEEC 22D8                     move.l (a0)+,(a1)+                 0.01% (1860, 37200, 0, 0)
0003AEEE 51C8 FFF6                dbf.w d0,#$FFF6                    0.01% (1860, 29816, 0, 0)
less4:
0003AEF2 0801 0001                btst.l #$0001,d1                   0.01% (1860, 18600, 0, 0)
0003AEF6 6702                     beq.b #$02                         0.01% (1860, 18600, 0, 0)
[...]
less2:
0003AEFA 0801 0000                btst.l #$0000,d1                   0.01% (1860, 18600, 0, 0)
0003AEFE 6702                     beq.b #$02                         0.01% (1860, 18600, 0, 0)
[...]
exit_d2:
0003AF02 241F                     move.l (a7)+,d2                    0.02% (3332, 40040, 0, 0)
exit:
0003AF04 202F 0004                move.l (a7,$0004),d0               0.02% (3332, 53312, 0, 0)
0003AF08 4E75                     rts                                0.02% (3332, 53312, 0, 0)
[...]
top_down:
0003AF32 D1C0                     adda.l d0,a0                       0.01% (1472, 11776, 0, 0)
0003AF34 D3C0                     adda.l d0,a1                       0.01% (1472, 11776, 0, 0)
0003AF36 3208                     move.w a0,d1                       0.01% (1472, 5888, 0, 0)
0003AF38 3409                     move.w a1,d2                       0.01% (1472, 5888, 0, 0)
0003AF3A B541                     eor.w d2,d1                        0.01% (1472, 5888, 0, 0)
0003AF3C 0801 0000                btst.l #$0000,d1                   0.01% (1472, 14720, 0, 0)
0003AF40 6600 009A                bne.w #$009A slow_copy_d           0.01% (1472, 20608, 0, 0)
0003AF44 0802 0000                btst.l #$0000,d2                   0.01% (1472, 14720, 0, 0)
0003AF48 6704                     beq.b #$04                         0.01% (1472, 14720, 0, 0)
[...]
both_even_d:
0003AF4E 7200                     moveq #$00,d1                      0.01% (1472, 5888, 0, 0)
0003AF50 1200                     move.b d0,d1                       0.01% (1472, 5888, 0, 0)
0003AF52 E088                     lsr.l #$08,d0                      0.01% (1472, 35384, 0, 0)
0003AF54 674C                     beq.b #$4C                         0.01% (1472, 17664, 0, 0)
[...]
less256_d:
0003AFA2 3001                     move.w d1,d0                       0.01% (1472, 5944, 0, 0)
0003AFA4 E448                     lsr.w #$02,d0                      0.01% (1472, 14720, 0, 0)
0003AFA6 671E                     beq.b #$1E                         0.01% (1472, 14720, 0, 0)
0003AFA8 3400                     move.w d0,d2                       0.01% (1472, 5888, 0, 0)
0003AFAA 4442                     neg.w d2                           0.01% (1472, 5888, 0, 0)
0003AFAC 0242 0003                and.w #$0003,d2                    0.01% (1472, 11776, 0, 0)
0003AFB0 5340                     subq.w #$01,d0                     0.01% (1472, 5888, 0, 0)
0003AFB2 E448                     lsr.w #$02,d0                      0.01% (1472, 14774, 0, 0)
0003AFB4 D442                     add.w d2,d2                        0.01% (1472, 8830, 0, 0)
0003AFB6 4EFB 2002                jmp (pc,d2.w,$02=$0003afba)        0.01% (1472, 23552, 0, 0)
copy16_d:
0003AFBA 2320                     move.l -(a0),-(a1)                 0.01% (1472, 35328, 0, 0)
0003AFBC 2320                     move.l -(a0),-(a1)                 0.01% (1472, 35328, 0, 0)
0003AFBE 2320                     move.l -(a0),-(a1)                 0.01% (1472, 35328, 0, 0)
0003AFC0 2320                     move.l -(a0),-(a1)                 0.01% (1472, 35328, 0, 0)
0003AFC2 51C8 FFF6                dbf.w d0,#$FFF6                    0.01% (1472, 23664, 0, 0)
less4_d:
0003AFC6 0801 0001                btst.l #$0001,d1                   0.01% (1472, 14720, 0, 0)
0003AFCA 6702                     beq.b #$02                         0.01% (1472, 14776, 0, 0)
[...]
less2_d:
0003AFCE 0801 0000                btst.l #$0000,d1                   0.01% (1472, 14720, 0, 0)
0003AFD2 6700 FF2E                beq.w #$FF2E exit_d2               0.01% (1472, 14720, 0, 0)
[...]
_memset:
0003B062 206F 0004                movea.l (a7,$0004),a0              0.00% (192, 3072, 0, 0)
0003B066 102F 000B                move.b (a7,$000B),d0               0.00% (192, 2360, 0, 0)
0003B06A 222F 000C                move.l (a7,$000C),d1               0.00% (192, 3072, 0, 0)
0003B06E 6700 0096                beq.w #$0096 exit                  0.00% (192, 2304, 0, 0)
do_set:
0003B072 2F02                     move.l d2,-(a7)                    0.00% (192, 2304, 0, 0)
0003B074 D1C1                     adda.l d1,a0                       0.00% (192, 1536, 0, 0)
0003B076 3408                     move.w a0,d2                       0.00% (192, 768, 0, 0)
0003B078 0802 0000                btst.l #$0000,d2                   0.00% (192, 1920, 0, 0)
0003B07C 6704                     beq.b #$04                         0.00% (192, 1920, 0, 0)
[...]
areeven:
0003B082 1400                     move.b d0,d2                       0.00% (192, 768, 0, 0)
0003B084 E148                     lsl.w #$08,d0                      0.00% (192, 4224, 0, 0)
0003B086 1002                     move.b d2,d0                       0.00% (192, 1152, 0, 0)
0003B088 3400                     move.w d0,d2                       0.00% (192, 768, 0, 0)
0003B08A 4842                     swap.w d2                          0.00% (192, 768, 0, 0)
0003B08C 3400                     move.w d0,d2                       0.00% (192, 768, 0, 0)
0003B08E 7000                     moveq #$00,d0                      0.00% (192, 768, 0, 0)
0003B090 1001                     move.b d1,d0                       0.00% (192, 768, 0, 0)
0003B092 E089                     lsr.l #$08,d1                      0.00% (192, 4608, 0, 0)
0003B094 6738                     beq.b #$38                         0.00% (192, 2304, 0, 0)
[...]
less256:
0003B0CE 3F00                     move.w d0,-(a7)                    0.00% (192, 1536, 0, 0)
0003B0D0 E448                     lsr.w #$02,d0                      0.00% (192, 1920, 0, 0)
0003B0D2 671E                     beq.b #$1E                         0.00% (192, 1920, 0, 0)
0003B0D4 3200                     move.w d0,d1                       0.00% (192, 768, 0, 0)
0003B0D6 4441                     neg.w d1                           0.00% (192, 768, 0, 0)
0003B0D8 0241 0003                and.w #$0003,d1                    0.00% (192, 1536, 0, 0)
0003B0DC 5340                     subq.w #$01,d0                     0.00% (192, 768, 0, 0)
0003B0DE E448                     lsr.w #$02,d0                      0.00% (192, 1920, 0, 0)
0003B0E0 D241                     add.w d1,d1                        0.00% (192, 1152, 0, 0)
0003B0E2 4EFB 1002                jmp (pc,d1.w,$02=$0003b0e6)        0.00% (192, 3072, 0, 0)
set16:
0003B0E6 2102                     move.l d2,-(a0)                    0.00% (768, 9216, 0, 0)
0003B0E8 2102                     move.l d2,-(a0)                    0.00% (960, 11520, 0, 0)
0003B0EA 2102                     move.l d2,-(a0)                    0.00% (960, 11520, 0, 0)
0003B0EC 2102                     move.l d2,-(a0)                    0.00% (960, 11520, 0, 0)
0003B0EE 51C8 FFF6                dbf.w d0,#$FFF6                    0.00% (960, 12288, 0, 0)
less4:
0003B0F2 301F                     move.w (a7)+,d0                    0.00% (192, 1536, 0, 0)
0003B0F4 0800 0001                btst.l #$0001,d0                   0.00% (192, 1920, 0, 0)
0003B0F8 6702                     beq.b #$02                         0.00% (192, 1920, 0, 0)
[...]
less2:
0003B0FC 0800 0000                btst.l #$0000,d0                   0.00% (192, 1920, 0, 0)
0003B100 6702                     beq.b #$02                         0.00% (192, 1920, 0, 0)
[...]
exit_d2:
0003B104 241F                     move.l (a7)+,d2                    0.00% (192, 2304, 0, 0)
exit:
0003B106 202F 0004                move.l (a7,$0004),d0               0.00% (192, 3072, 0, 0)
0003B10A 4E75                     rts                                0.00% (192, 3072, 0, 0)
[...]
00E00738 52B8 0466                addq.l #$01,$00000466.w            0.00% (192, 4664, 0, 0)
00E0073C 5378 0452                subq.w #$01,$00000452.w            0.00% (192, 3072, 0, 0)
00E00740 6B00 009A                bmi.w #$009A                       0.00% (192, 2304, 0, 0)
00E00744 48E7 FFFE                movem.l d0-d7/a0-a6,-(a7)          0.00% (192, 24576, 0, 0)
00E00748 52B8 0462                addq.l #$01,$00000462.w            0.00% (192, 4608, 0, 0)
00E0074C 4EB9 00E0 AB0A           jsr $00E0AB0A                      0.00% (192, 3840, 0, 0)
00E00752 4EB9 00E0 BF5E           jsr $00E0BF5E                      0.00% (192, 3840, 0, 0)
00E00758 2038 045A                move.l $0000045A.w,d0              0.00% (192, 3072, 0, 0)
00E0075C 6716                     beq.b #$16                         0.00% (192, 1920, 0, 0)
[...]
00E00774 2038 045E                move.l $0000045E.w,d0              0.00% (192, 3456, 0, 0)
00E00778 6722                     beq.b #$22                         0.00% (192, 1920, 0, 0)
[...]
00E0079C 4EB9 00E0 6788           jsr $00E06788                      0.00% (192, 4224, 0, 0)
00E007A2 3038 0454                move.w $00000454.w,d0              0.00% (192, 2304, 0, 0)
00E007A6 671E                     beq.b #$1E                         0.00% (192, 1536, 0, 0)
00E007A8 5340                     subq.w #$01,d0                     0.00% (192, 768, 0, 0)
00E007AA 2078 0456                movea.l $00000456.w,a0             0.00% (192, 3072, 0, 0)
00E007AE 2258                     movea.l (a0)+,a1                   0.01% (1536, 21120, 0, 0)
00E007B0 B3FC 0000 0000           cmpa.l #$00000000,a1               0.01% (1536, 21504, 0, 0)
00E007B6 670A                     beq.b #$0A                         0.01% (1536, 14976, 0, 0)
00E007B8 2F08                     move.l a0,-(a7)                    0.00% (192, 2688, 0, 0)
00E007BA 2F00                     move.l d0,-(a7)                    0.00% (192, 2304, 0, 0)
00E007BC 4E91                     jsr (a1)                           0.00% (192, 3072, 0, 0)
00E007BE 201F                     move.l (a7)+,d0                    0.00% (192, 2304, 0, 0)
00E007C0 205F                     movea.l (a7)+,a0                   0.00% (192, 2304, 0, 0)
00E007C2 51C8 FFEA                dbf.w d0,#$FFEA                    0.01% (1536, 16128, 0, 0)
00E007C6 4A78 04EE                tst.w $000004EE.w                  0.00% (192, 2688, 0, 0)
00E007CA 660C                     bne.b #$0C                         0.00% (192, 1920, 0, 0)
[...]
00E007D8 4CDF 7FFF                movem.l (a7)+,d0-d7/a0-a6          0.00% (192, 25728, 0, 0)
00E007DC 5278 0452                addq.w #$01,$00000452.w            0.00% (192, 3072, 0, 0)
00E007E0 4E73                     rte                                0.00% (192, 3840, 0, 0)
00E007E2 52B8 04BA                addq.l #$01,$000004BA.w            0.00% (640, 15360, 0, 0)
00E007E6 E7F9 0000 35B4           rol.w $000035B4                    0.00% (640, 12800, 0, 0)
00E007EC 6A20                     bpl.b #$20                         0.00% (640, 6080, 0, 0)
00E007EE 48E7 FFFE                movem.l d0-d7/a0-a6,-(a7)          0.00% (160, 20480, 0, 0)
00E007F2 4EB9 00E0 856C           jsr $00E0856C                      0.00% (160, 3200, 0, 0)
00E007F8 4EB9 00E0 B8D4           jsr $00E0B8D4                      0.00% (160, 3200, 0, 0)
00E007FE 3F38 0442                move.w $00000442.w,-(a7)           0.00% (160, 2560, 0, 0)
00E00802 2078 0400                movea.l $00000400.w,a0             0.00% (160, 2560, 0, 0)
00E00806 4E90                     jsr (a0)                           0.00% (160, 2560, 0, 0)
00E00808 548F                     addaq.l #$02,a7                    0.00% (160, 1280, 0, 0)
00E0080A 4CDF 7FFF                movem.l (a7)+,d0-d7/a0-a6          0.00% (160, 21120, 0, 0)
00E0080E 11FC 00DF FA11           move.b #$DF,$FFFFFA11.w            0.00% (640, 12800, 0, 0)
00E00814 4E73                     rte                                0.00% (640, 13816, 0, 0)
[...]
00E00B9A 3239 00E0 1806           move.w $00E01806,d1                0.00% (384, 6144, 0, 0)
00E00BA0 41F9 00E0 1808           lea.l $00E01808,a0                 0.00% (384, 4608, 0, 0)
00E00BA6 2278 04A2                movea.l $000004A2.w,a1             0.00% (384, 6144, 0, 0)
00E00BAA 301F                     move.w (a7)+,d0                    0.00% (384, 3072, 0, 0)
00E00BAC 3300                     move.w d0,-(a1)                    0.00% (384, 3072, 0, 0)
00E00BAE 231F                     move.l (a7)+,-(a1)                 0.00% (384, 7680, 0, 0)
00E00BB0 4A78 059E                tst.w $0000059E.w                  0.00% (384, 4608, 0, 0)
00E00BB4 6702                     beq.b #$02                         0.00% (384, 3840, 0, 0)
[...]
00E00BB8 48E1 1F1F                movem.l d3-d7/a3-a7,-(a1)          0.00% (384, 34560, 0, 0)
00E00BBC 21C9 04A2                move.l a1,$000004A2.w              0.00% (384, 6144, 0, 0)
00E00BC0 0800 000D                btst.l #$000D,d0                   0.00% (384, 3840, 0, 0)
00E00BC4 6602                     bne.b #$02                         0.00% (384, 3072, 0, 0)
00E00BC6 4E6F                     move.l usp,a7                      0.00% (384, 1536, 0, 0)
00E00BC8 7000                     moveq #$00,d0                      0.00% (384, 1536, 0, 0)
00E00BCA 301F                     move.w (a7)+,d0                    0.00% (384, 3840, 0, 0)
00E00BCC B041                     cmp.w d1,d0                        0.00% (384, 1536, 0, 0)
00E00BCE 640C                     bcc.b #$0C                         0.00% (384, 3072, 0, 0)
00E00BD0 2200                     move.l d0,d1                       0.00% (384, 1536, 0, 0)
00E00BD2 D281                     add.l d1,d1                        0.00% (384, 3072, 0, 0)
00E00BD4 D281                     add.l d1,d1                        0.00% (384, 3072, 0, 0)
00E00BD6 D1C1                     adda.l d1,a0                       0.00% (384, 3072, 0, 0)
00E00BD8 2050                     movea.l (a0),a0                    0.00% (384, 4608, 0, 0)
00E00BDA 4E90                     jsr (a0)                           0.00% (384, 6144, 0, 0)
00E00BDC 2278 04A2                movea.l $000004A2.w,a1             0.00% (384, 6144, 0, 0)
00E00BE0 4CD9 F8F8                movem.l (a1)+,d3-d7/a3-a7          0.00% (384, 35384, 0, 0)
00E00BE4 4A78 059E                tst.w $0000059E.w                  0.00% (384, 4608, 0, 0)
00E00BE8 6702                     beq.b #$02                         0.00% (384, 3840, 0, 0)
[...]
00E00BEC 2F19                     move.l (a1)+,-(a7)                 0.00% (384, 8448, 0, 0)
00E00BEE 3F19                     move.w (a1)+,-(a7)                 0.00% (384, 4608, 0, 0)
00E00BF0 21C9 04A2                move.l a1,$000004A2.w              0.00% (384, 6144, 0, 0)
00E00BF4 4E73                     rte                                0.00% (384, 7680, 0, 0)
[...]
00E00CF0 48E7 F0F0                movem.l d0-d3/a0-a3,-(a7)          0.00% (30, 2160, 0, 0)
00E00CF4 2079 0000 25A4           movea.l $000025A4,a0               0.00% (30, 600, 0, 0)
00E00CFA 4E90                     jsr (a0)                           0.00% (30, 480, 0, 0)
00E00CFC 2079 0000 25A8           movea.l $000025A8,a0               0.00% (30, 600, 0, 0)
00E00D02 4E90                     jsr (a0)                           0.00% (30, 480, 0, 0)
00E00D04 43F8 FA00                lea.l $FFFFFA00.w,a1               0.00% (30, 240, 0, 0)
00E00D08 0829 0004 0001           btst.b #$0004,(a1,$0001)           0.00% (30, 600, 0, 0)
00E00D0E 67E4                     beq.b #$E4                         0.00% (30, 240, 0, 0)
00E00D10 137C 00BF 0011           move.b #$BF,(a1,$0011)             0.00% (30, 600, 0, 0)
00E00D16 4CDF 0F0F                movem.l (a7)+,d0-d3/a0-a3          0.00% (30, 2280, 0, 0)
00E00D1A 4E73                     rte                                0.00% (30, 600, 0, 0)
00E00D1C 1038 FC04                move.b $FFFFFC04.w,d0              0.00% (30, 634, 0, 0)
00E00D20 6A28                     bpl.b #$28                         0.00% (30, 300, 0, 0)
[...]
00E00D4A 4E75                     rts                                0.00% (30, 518, 0, 0)
[...]
00E00D84 7000                     moveq #$00,d0                      0.00% (30, 120, 0, 0)
00E00D86 1238 FC00                move.b $FFFFFC00.w,d1              0.00% (30, 682, 0, 0)
00E00D8A 1001                     move.b d1,d0                       0.00% (30, 120, 0, 0)
00E00D8C 6A24                     bpl.b #$24                         0.00% (30, 240, 0, 0)
00E00D8E 0800 0000                btst.l #$0000,d0                   0.00% (30, 300, 0, 0)
00E00D92 671E                     beq.b #$1E                         0.00% (30, 240, 0, 0)
00E00D94 3F00                     move.w d0,-(a7)                    0.00% (30, 262, 0, 0)
00E00D96 1038 FC02                move.b $FFFFFC02.w,d0              0.00% (30, 638, 0, 0)
00E00D9A 4EBA 0018                jsr (pc,$0018)                     0.00% (30, 562, 0, 0)
00E00D9E 301F                     move.w (a7)+,d0                    0.00% (30, 240, 0, 0)
00E00DA0 0800 0005                btst.l #$0005,d0                   0.00% (30, 300, 0, 0)
00E00DA4 670C                     beq.b #$0C                         0.00% (30, 300, 0, 0)
[...]
00E00DB2 4E75                     rts                                0.00% (30, 480, 0, 0)
00E00DB4 4A39 0000 25AC           tst.b $000025AC                    0.00% (30, 480, 0, 0)
00E00DBA 664C                     bne.b #$4C                         0.00% (30, 280, 0, 0)
00E00DBC 0C40 00F6                cmp.w #$00F6,d0                    0.00% (10, 80, 0, 0)
00E00DC0 640E                     bcc.b #$0E                         0.00% (10, 100, 0, 0)
[...]
00E00DD0 13C0 0000 25B0           move.b d0,$000025B0                0.00% (10, 180, 0, 0)
00E00DD6 33FC 0001 0000 25AE      move.w #$0001,$000025AE            0.00% (10, 200, 0, 0)
00E00DDE 0400 00F6                sub.b #$F6,d0                      0.00% (10, 80, 0, 0)
00E00DE2 13FB 0810 0000 25AC      move.b (pc,d0.l,$10=$00e00df4),$000025AC 0.00% (10, 280, 0, 0)
00E00DEA 13FB 0812 0000 25AD      move.b (pc,d0.l,$12=$00e00dfe),$000025AD 0.00% (10, 280, 0, 0)
00E00DF2 4E75                     rts                                0.00% (10, 160, 0, 0)
[...]
00E00E08 3239 0000 25AE           move.w $000025AE,d1                0.00% (20, 360, 0, 0)
00E00E0E 41F9 0000 25B0           lea.l $000025B0,a0                 0.00% (20, 240, 0, 0)
00E00E14 1180 1000                move.b d0,(a0,d1.w,$00)            0.00% (20, 320, 0, 0)
00E00E18 5339 0000 25AD           subq.b #$01,$000025AD              0.00% (20, 400, 0, 0)
00E00E1E 6708                     beq.b #$08                         0.00% (20, 180, 0, 0)
00E00E20 5279 0000 25AE           addq.w #$01,$000025AE              0.00% (10, 200, 0, 0)
00E00E26 4E75                     rts                                0.00% (10, 160, 0, 0)
00E00E28 7200                     moveq #$00,d1                      0.00% (10, 40, 0, 0)
00E00E2A 1239 0000 25AC           move.b $000025AC,d1                0.00% (10, 180, 0, 0)
00E00E30 E541                     asl.w #$02,d1                      0.00% (10, 100, 0, 0)
00E00E32 227B 1806                movea.l (pc,d1.l,$06=$00e00e3a),a1 0.00% (10, 180, 0, 0)
00E00E36 41F9 0000 25B0           lea.l $000025B0,a0                 0.00% (10, 120, 0, 0)
00E00E3C 4ED1                     jmp (a1)                           0.00% (10, 80, 0, 0)
[...]
00E00E66 2279 0000 2598           movea.l $00002598,a1               0.00% (10, 200, 0, 0)
00E00E6C 6026                     bra.b #$26                         0.00% (10, 100, 0, 0)
[...]
00E00E94 2F08                     move.l a0,-(a7)                    0.00% (10, 140, 0, 0)
00E00E96 4E91                     jsr (a1)                           0.00% (10, 160, 0, 0)
00E00E98 588F                     addaq.l #$04,a7                    0.00% (10, 80, 0, 0)
00E00E9A 4239 0000 25AC           clr.b $000025AC                    0.00% (10, 200, 0, 0)
00E00EA0 4E75                     rts                                0.00% (10, 160, 0, 0)
[...]
00E057E4 2F03                     move.l d3,-(a7)                    0.00% (48, 576, 0, 0)
00E057E6 2F02                     move.l d2,-(a7)                    0.00% (48, 576, 0, 0)
00E057E8 122F 000D                move.b (a7,$000D),d1               0.00% (48, 576, 0, 0)
00E057EC 40C2                     move.w sr,d2                       0.00% (48, 288, 0, 0)
00E057EE 46FC 2700                move.w #$2700,sr                   0.00% (48, 768, 0, 0)
00E057F2 307C 8800                movea.w #$8800,a0                  0.00% (48, 384, 0, 0)
00E057F6 10BC 000E                move.b #$0E,(a0)                   0.00% (48, 768, 0, 0)
00E057FA 1010                     move.b (a0),d0                     0.00% (48, 576, 0, 0)
00E057FC 0201 0007                and.b #$07,d1                      0.00% (48, 384, 0, 0)
00E05800 1600                     move.b d0,d3                       0.00% (48, 192, 0, 0)
00E05802 0203 FFF8                and.b #$F8,d3                      0.00% (48, 384, 0, 0)
00E05806 8203                     or.b d3,d1                         0.00% (48, 192, 0, 0)
00E05808 11C1 8802                move.b d1,$FFFF8802.w              0.00% (48, 768, 0, 0)
00E0580C 40C1                     move.w sr,d1                       0.00% (48, 288, 0, 0)
00E0580E 46C2                     move.w d2,sr                       0.00% (48, 576, 0, 0)
00E05810 0200 0007                and.b #$07,d0                      0.00% (48, 384, 0, 0)
00E05814 241F                     move.l (a7)+,d2                    0.00% (48, 576, 0, 0)
00E05816 261F                     move.l (a7)+,d3                    0.00% (48, 576, 0, 0)
00E05818 4E75                     rts                                0.00% (48, 768, 0, 0)
[...]
00E059B4 31FC 0080 8606           move.w #$0080,$FFFF8606.w          0.00% (24, 480, 0, 0)
00E059BA 2039 0000 313C           move.l $0000313C,d0                0.00% (24, 480, 0, 0)
00E059C0 5380                     subq.l #$01,d0                     0.01% (2136, 17088, 0, 0)
00E059C2 6AFC                     bpl.b #$FC                         0.01% (2136, 21312, 0, 0)
00E059C4 3038 8604                move.w $FFFF8604.w,d0              0.00% (24, 384, 0, 0)
00E059C8 4E75                     rts                                0.00% (24, 384, 0, 0)
[...]
00E06788 48E7 3830                movem.l d2-d4/a2-a3,-(a7)          0.00% (192, 9216, 0, 0)
00E0678C 3239 0000 04A6           move.w $000004A6,d1                0.00% (192, 3072, 0, 0)
00E06792 6700 00B8                beq.w #$00B8                       0.00% (192, 2304, 0, 0)
00E06796 3039 0000 043E           move.w $0000043E,d0                0.00% (192, 3072, 0, 0)
00E0679C 6600 00AE                bne.w #$00AE                       0.00% (192, 2304, 0, 0)
00E067A0 2039 0000 0466           move.l $00000466,d0                0.00% (192, 3840, 0, 0)
00E067A6 7407                     moveq #$07,d2                      0.00% (192, 768, 0, 0)
00E067A8 C082                     and.l d2,d0                        0.00% (192, 1536, 0, 0)
00E067AA 6600 00A0                bne.w #$00A0                       0.00% (192, 1968, 0, 0)
00E067AE 0C41 0002                cmp.w #$0002,d1                    0.00% (24, 192, 0, 0)
00E067B2 6610                     bne.b #$10                         0.00% (24, 192, 0, 0)
00E067B4 2039 0000 0466           move.l $00000466,d0                0.00% (24, 480, 0, 0)
00E067BA 44C0                     move.b d0,ccr                      0.00% (24, 288, 0, 0)
00E067BC 5BC2                     smi.b d2                           0.00% (24, 120, 0, 0)
00E067BE 4882                     ext.w d2                           0.00% (24, 96, 0, 0)
00E067C0 4442                     neg.w d2                           0.00% (24, 96, 0, 0)
00E067C2 6002                     bra.b #$02                         0.00% (24, 240, 0, 0)
[...]
00E067C6 7000                     moveq #$00,d0                      0.00% (24, 96, 0, 0)
00E067C8 3002                     move.w d2,d0                       0.00% (24, 96, 0, 0)
00E067CA 41FA 008E                lea.l (pc,$008E),a0                0.00% (24, 192, 0, 0)
00E067CE 1030 0800                move.b (a0,d0.l,$00),d0            0.00% (24, 336, 0, 0)
00E067D2 0240 00FF                and.w #$00FF,d0                    0.00% (24, 192, 0, 0)
00E067D6 3F00                     move.w d0,-(a7)                    0.00% (24, 216, 0, 0)
00E067D8 45FA F00A                lea.l (pc,$F00A),a2                0.00% (24, 192, 0, 0)
00E067DC 4E92                     jsr (a2)                           0.00% (24, 384, 0, 0)
00E067DE 1800                     move.b d0,d4                       0.00% (24, 96, 0, 0)
00E067E0 4EBA F1D2                jsr (pc,$F1D2)                     0.00% (24, 480, 0, 0)
00E067E4 3600                     move.w d0,d3                       0.00% (24, 96, 0, 0)
00E067E6 0243 0080                and.w #$0080,d3                    0.00% (24, 192, 0, 0)
00E067EA 33C3 0000 3174           move.w d3,$00003174                0.00% (24, 384, 0, 0)
00E067F0 0200 0040                and.b #$40,d0                      0.00% (24, 192, 0, 0)
00E067F4 3042                     movea.w d2,a0                      0.00% (24, 96, 0, 0)
00E067F6 43F9 0000 3150           lea.l $00003150,a1                 0.00% (24, 288, 0, 0)
00E067FC 47F0 8800                lea.l (a0,a0.l,$00),a3             0.00% (24, 288, 0, 0)
00E06800 220B                     move.l a3,d1                       0.00% (24, 96, 0, 0)
00E06802 D288                     add.l a0,d1                        0.00% (24, 192, 0, 0)
00E06804 D281                     add.l d1,d1                        0.00% (24, 192, 0, 0)
00E06806 D281                     add.l d1,d1                        0.00% (24, 192, 0, 0)
00E06808 9288                     sub.l a0,d1                        0.00% (24, 192, 0, 0)
00E0680A D281                     add.l d1,d1                        0.00% (24, 192, 0, 0)
00E0680C 1380 1800                move.b d0,(a1,d1.l,$00)            0.00% (24, 384, 0, 0)
00E06810 8131 1801                or.b d0,(a1,d1.l,$01)              0.00% (24, 480, 0, 0)
00E06814 0244 00FF                and.w #$00FF,d4                    0.00% (24, 192, 0, 0)
00E06818 3F04                     move.w d4,-(a7)                    0.00% (24, 192, 0, 0)
00E0681A 4E92                     jsr (a2)                           0.00% (24, 384, 0, 0)
00E0681C 2039 0000 3144           move.l $00003144,d0                0.00% (24, 480, 0, 0)
00E06822 588F                     addaq.l #$04,a7                    0.00% (24, 192, 0, 0)
00E06824 6726                     beq.b #$26                         0.00% (24, 240, 0, 0)
[...]
00E0684C 4CDF 0C1C                movem.l (a7)+,d2-d4/a2-a3          0.00% (192, 10368, 0, 0)
00E06850 4E75                     rts                                0.00% (192, 3072, 0, 0)
[...]
00E0856C 3039 0000 355A           move.w $0000355A,d0                0.00% (160, 2560, 0, 0)
00E08572 6F16                     ble.b #$16                         0.00% (160, 1600, 0, 0)
[...]
00E0858A 4241                     clr.w d1                           0.00% (160, 640, 0, 0)
00E0858C 1239 0000 0484           move.b $00000484,d1                0.00% (160, 2880, 0, 0)
00E08592 0801 0001                btst.l #$0001,d1                   0.00% (160, 1600, 0, 0)
00E08596 6700 00A0                beq.w #$00A0                       0.00% (160, 1920, 0, 0)
00E0859A 4A40                     tst.w d0                           0.00% (160, 640, 0, 0)
00E0859C 6700 009A                beq.w #$009A                       0.00% (160, 1600, 0, 0)
[...]
00E08638 4E75                     rts                                0.00% (160, 2560, 0, 0)
[...]
00E098E8 48F9 0503 0000 3574      movem.l d0-d1/a0/a2,$00003574      0.00% (192, 9216, 0, 0)
00E098F0 206F 0002                movea.l (a7,$0002),a0              0.00% (192, 3128, 0, 0)
00E098F4 7000                     moveq #$00,d0                      0.00% (192, 768, 0, 0)
00E098F6 3018                     move.w (a0)+,d0                    0.00% (192, 1536, 0, 0)
00E098F8 2F48 0002                move.l a0,(a7,$0002)               0.00% (192, 3072, 0, 0)
00E098FC 0240 0FFF                and.w #$0FFF,d0                    0.00% (192, 1536, 0, 0)
00E09900 0C40 0010                cmp.w #$0010,d0                    0.00% (192, 1536, 0, 0)
00E09904 6416                     bcc.b #$16                         0.00% (192, 1536, 0, 0)
00E09906 43FA 0062                lea.l (pc,$0062),a1                0.00% (192, 1536, 0, 0)
00E0990A E548                     lsl.w #$02,d0                      0.00% (192, 1920, 0, 0)
00E0990C 2271 0800                movea.l (a1,d0.l,$00),a1           0.00% (192, 3456, 0, 0)
00E09910 4CF9 0503 0000 3574      movem.l $00003574,d0-d1/a0/a2      0.00% (192, 9984, 0, 0)
00E09918 4E91                     jsr (a1)                           0.00% (192, 3072, 0, 0)
00E0991A 4E73                     rte                                0.00% (192, 3840, 0, 0)
[...]
00E0995E 2F0E                     move.l a6,-(a7)                    0.00% (192, 2304, 0, 0)
00E09960 4EB9 00E1 BA84           jsr $00E1BA84                      0.00% (192, 3840, 0, 0)
00E09966 588F                     addaq.l #$04,a7                    0.00% (192, 1536, 0, 0)
00E09968 4E75                     rts                                0.00% (192, 3072, 0, 0)
[...]
00E0A778 202F 0004                move.l (a7,$0004),d0               0.00% (192, 3072, 0, 0)
00E0A77C 2200                     move.l d0,d1                       0.00% (192, 768, 0, 0)
00E0A77E 4241                     clr.w d1                           0.00% (192, 768, 0, 0)
00E0A780 4841                     swap.w d1                          0.00% (192, 768, 0, 0)
00E0A782 11C1 8201                move.b d1,$FFFF8201.w              0.00% (192, 2304, 0, 0)
00E0A786 2200                     move.l d0,d1                       0.00% (192, 768, 0, 0)
00E0A788 E089                     lsr.l #$08,d1                      0.00% (192, 4608, 0, 0)
00E0A78A 11C1 8203                move.b d1,$FFFF8203.w              0.00% (192, 2304, 0, 0)
00E0A78E 4A79 0000 3598           tst.w $00003598                    0.00% (192, 3072, 0, 0)
00E0A794 6704                     beq.b #$04                         0.00% (192, 1920, 0, 0)
[...]
00E0A79A 4E75                     rts                                0.00% (192, 3456, 0, 0)
[...]
00E0A9DC 48E7 3020                movem.l d2-d3/a2,-(a7)             0.00% (192, 6144, 0, 0)
00E0A9E0 40C2                     move.w sr,d2                       0.00% (192, 1152, 0, 0)
00E0A9E2 46FC 2300                move.w #$2300,sr                   0.00% (192, 3072, 0, 0)
00E0A9E6 2639 0000 0466           move.l $00000466,d3                0.00% (192, 4224, 0, 0)
00E0A9EC 45F9 00E1 39BC           lea.l $00E139BC,a2                 0.00% (192, 2304, 0, 0)
00E0A9F2 6002                     bra.b #$02                         0.00% (192, 1920, 0, 0)
00E0A9F4 4E92                     jsr (a2)                           0.00% (587, 9392, 0, 0)
00E0A9F6 2039 0000 0466           move.l $00000466,d0                0.00% (779, 15964, 0, 0)
00E0A9FC B680                     cmp.l d0,d3                        0.00% (779, 4674, 0, 0)
00E0A9FE 67F4                     beq.b #$F4                         0.00% (779, 7406, 0, 0)
00E0AA00 40C0                     move.w sr,d0                       0.00% (192, 1152, 0, 0)
00E0AA02 46C2                     move.w d2,sr                       0.00% (192, 2304, 0, 0)
00E0AA04 4CDF 040C                movem.l (a7)+,d2-d3/a2             0.00% (192, 6912, 0, 0)
00E0AA08 4E75                     rts                                0.00% (192, 3072, 0, 0)
00E0AA0A 2F02                     move.l d2,-(a7)                    0.00% (192, 2304, 0, 0)
00E0AA0C 222F 0008                move.l (a7,$0008),d1               0.00% (192, 3128, 0, 0)
00E0AA10 202F 000C                move.l (a7,$000C),d0               0.00% (192, 3072, 0, 0)
00E0AA14 342F 0010                move.w (a7,$0010),d2               0.00% (192, 2304, 0, 0)
00E0AA18 4A81                     tst.l d1                           0.00% (192, 768, 0, 0)
00E0AA1A 6F06                     ble.b #$06                         0.00% (192, 1536, 0, 0)
00E0AA1C 23C1 0000 044E           move.l d1,$0000044E                0.00% (192, 3840, 0, 0)
00E0AA22 4A80                     tst.l d0                           0.00% (192, 768, 0, 0)
00E0AA24 6F08                     ble.b #$08                         0.00% (192, 1536, 0, 0)
00E0AA26 2F00                     move.l d0,-(a7)                    0.00% (192, 2304, 0, 0)
00E0AA28 4EBA FD4E                jsr (pc,$FD4E)                     0.00% (192, 3840, 0, 0)
00E0AA2C 588F                     addaq.l #$04,a7                    0.00% (192, 1536, 0, 0)
00E0AA2E 4A39 0000 35EC           tst.b $000035EC                    0.00% (192, 3072, 0, 0)
00E0AA34 6646                     bne.b #$46                         0.00% (192, 1536, 0, 0)
00E0AA36 0C42 FFFF                cmp.w #$FFFF,d2                    0.00% (192, 1536, 0, 0)
00E0AA3A 6740                     beq.b #$40                         0.00% (192, 1920, 0, 0)
[...]
00E0AA7C 4240                     clr.w d0                           0.00% (192, 768, 0, 0)
00E0AA7E 6002                     bra.b #$02                         0.00% (192, 1920, 0, 0)
[...]
00E0AA82 241F                     move.l (a7)+,d2                    0.00% (192, 2304, 0, 0)
00E0AA84 4E75                     rts                                0.00% (192, 3072, 0, 0)
[...]
00E0AB0A 2F03                     move.l d3,-(a7)                    0.00% (192, 2304, 0, 0)
00E0AB0C 2F02                     move.l d2,-(a7)                    0.00% (192, 2304, 0, 0)
00E0AB0E 1038 FA01                move.b $FFFFFA01.w,d0              0.00% (192, 3072, 0, 0)
00E0AB12 4A79 0000 3130           tst.w $00003130                    0.00% (192, 3072, 0, 0)
00E0AB18 672A                     beq.b #$2A                         0.00% (192, 1920, 0, 0)
[...]
00E0AB44 1238 8260                move.b $FFFF8260.w,d1              0.00% (192, 2688, 0, 0)
00E0AB48 0201 0003                and.b #$03,d1                      0.00% (192, 1536, 0, 0)
00E0AB4C 0C01 0002                cmp.b #$02,d1                      0.00% (192, 1536, 0, 0)
00E0AB50 6614                     bne.b #$14                         0.00% (192, 1920, 0, 0)
[...]
00E0AB66 4A00                     tst.b d0                           0.00% (192, 768, 0, 0)
00E0AB68 6D22                     blt.b #$22                         0.00% (192, 1920, 0, 0)
[...]
00E0AB8C 241F                     move.l (a7)+,d2                    0.00% (192, 2304, 0, 0)
00E0AB8E 261F                     move.l (a7)+,d3                    0.00% (192, 2304, 0, 0)
00E0AB90 4E75                     rts                                0.00% (192, 3072, 0, 0)
[...]
00E0B8D4 2F02                     move.l d2,-(a7)                    0.00% (160, 1920, 0, 0)
00E0B8D6 2079 0000 3D08           movea.l $00003D08,a0               0.00% (160, 3200, 0, 0)
00E0B8DC B0FC 0000                cmpa.w #$0000,a0                   0.00% (160, 1600, 0, 0)
00E0B8E0 6700 0092                beq.w #$0092                       0.00% (160, 1600, 0, 0)
[...]
00E0B974 241F                     move.l (a7)+,d2                    0.00% (160, 1920, 0, 0)
00E0B976 4E75                     rts                                0.00% (160, 2560, 0, 0)
[...]
00E0BF5E 2F02                     move.l d2,-(a7)                    0.00% (192, 2304, 0, 0)
00E0BF60 1039 0000 20C0           move.b $000020C0,d0                0.00% (192, 3072, 0, 0)
00E0BF66 4241                     clr.w d1                           0.00% (192, 768, 0, 0)
00E0BF68 1200                     move.b d0,d1                       0.00% (192, 768, 0, 0)
00E0BF6A 44C1                     move.b d1,ccr                      0.00% (192, 2304, 0, 0)
00E0BF6C 664A                     bne.b #$4A                         0.00% (192, 1920, 0, 0)
[...]
00E0BFB8 241F                     move.l (a7)+,d2                    0.00% (192, 2688, 0, 0)
00E0BFBA 4E75                     rts                                0.00% (192, 3072, 0, 0)
[...]
00E12BBC 2F03                     move.l d3,-(a7)                    0.00% (160, 1920, 0, 0)
00E12BBE 2F02                     move.l d2,-(a7)                    0.00% (160, 1920, 0, 0)
00E12BC0 302F 000C                move.w (a7,$000C),d0               0.00% (160, 1920, 0, 0)
00E12BC4 D079 0000 74A4           add.w $000074A4,d0                 0.00% (160, 2560, 0, 0)
00E12BCA 33C0 0000 74A4           move.w d0,$000074A4                0.00% (160, 2560, 0, 0)
00E12BD0 0C40 07CF                cmp.w #$07CF,d0                    0.00% (160, 1280, 0, 0)
00E12BD4 6F00 00BA                ble.w #$00BA                       0.00% (160, 1604, 0, 0)
00E12BD8 0640 F830                add.w #$F830,d0                    0.00% (2, 16, 0, 0)
00E12BDC 33C0 0000 74A4           move.w d0,$000074A4                0.00% (2, 32, 0, 0)
00E12BE2 3039 0000 74A2           move.w $000074A2,d0                0.00% (2, 32, 0, 0)
00E12BE8 5240                     addq.w #$01,d0                     0.00% (2, 8, 0, 0)
00E12BEA 33C0 0000 74A2           move.w d0,$000074A2                0.00% (2, 32, 0, 0)
00E12BF0 3200                     move.w d0,d1                       0.00% (2, 8, 0, 0)
00E12BF2 0241 001F                and.w #$001F,d1                    0.00% (2, 16, 0, 0)
00E12BF6 0C41 001E                cmp.w #$001E,d1                    0.00% (2, 16, 0, 0)
00E12BFA 6600 0094                bne.w #$0094                       0.00% (2, 20, 0, 0)
[...]
00E12C90 241F                     move.l (a7)+,d2                    0.00% (160, 2240, 0, 0)
00E12C92 261F                     move.l (a7)+,d3                    0.00% (160, 1920, 0, 0)
00E12C94 4E75                     rts                                0.00% (160, 2560, 0, 0)
[...]
00E139BC 40C0                     move.w sr,d0                       0.00% (587, 3522, 0, 0)
00E139BE 3200                     move.w d0,d1                       0.00% (587, 2348, 0, 0)
00E139C0 0241 0700                and.w #$0700,d1                    0.00% (587, 4696, 0, 0)
00E139C4 EA49                     lsr.w #$05,d1                      0.00% (587, 9392, 0, 0)
00E139C6 4EFB 1002                jmp (pc,d1.w,$02=$00e139ca)        0.00% (587, 8218, 0, 0)
[...]
00E139E2 4E72 2300                stop #$2300                       76.92% (14906876, 59660984, 0, 0)
00E139E6 46C0                     move.w d0,sr                       0.00% (587, 7044, 0, 0)
00E139E8 4E75                     rts                                0.00% (587, 9392, 0, 0)
[...]
00E13A08 4E75                     rts                                0.00% (170, 2720, 0, 0)
[...]
00E16594 41F9 0000 1E12           lea.l $00001E12,a0                 0.00% (20, 240, 0, 0)
00E1659A 4A40                     tst.w d0                           0.00% (20, 80, 0, 0)
00E1659C 6C04                     bge.b #$04                         0.00% (20, 200, 0, 0)
[...]
00E165A2 B050                     cmp.w (a0),d0                      0.00% (20, 200, 0, 0)
00E165A4 6F02                     ble.b #$02                         0.00% (20, 198, 0, 0)
00E165A6 3010                     move.w (a0),d0                     0.00% (1, 8, 0, 0)
00E165A8 4A41                     tst.w d1                           0.00% (20, 80, 0, 0)
00E165AA 6C04                     bge.b #$04                         0.00% (20, 200, 0, 0)
[...]
00E165B0 B268 0002                cmp.w (a0,$0002),d1                0.00% (20, 242, 0, 0)
00E165B4 6F04                     ble.b #$04                         0.00% (20, 200, 0, 0)
[...]
00E165BA 4E75                     rts                                0.00% (20, 360, 0, 0)
00E165BC 48E7 FFFE                movem.l d0-d7/a0-a6,-(a7)          0.00% (10, 1280, 0, 0)
00E165C0 1010                     move.b (a0),d0                     0.00% (10, 80, 0, 0)
00E165C2 1200                     move.b d0,d1                       0.00% (10, 40, 0, 0)
00E165C4 0201 00F8                and.b #$F8,d1                      0.00% (10, 80, 0, 0)
00E165C8 0C01 00F8                cmp.b #$F8,d1                      0.00% (10, 80, 0, 0)
00E165CC 6600 00A0                bne.w #$00A0                       0.00% (10, 120, 0, 0)
00E165D0 0240 0003                and.w #$0003,d0                    0.00% (10, 80, 0, 0)
00E165D4 E208                     lsr.b #$01,d0                      0.00% (10, 80, 0, 0)
00E165D6 6404                     bcc.b #$04                         0.00% (10, 100, 0, 0)
[...]
00E165DC 1239 0000 1F6A           move.b $00001F6A,d1                0.00% (10, 180, 0, 0)
00E165E2 0241 0003                and.w #$0003,d1                    0.00% (10, 80, 0, 0)
00E165E6 B001                     cmp.b d1,d0                        0.00% (10, 40, 0, 0)
00E165E8 6728                     beq.b #$28                         0.00% (10, 100, 0, 0)
[...]
00E16612 1028 0001                move.b (a0,$0001),d0               0.00% (10, 140, 0, 0)
00E16616 8028 0002                or.b (a0,$0002),d0                 0.00% (10, 120, 0, 0)
00E1661A 660A                     bne.b #$0A                         0.00% (10, 100, 0, 0)
[...]
00E16626 08F9 0005 0000 1F6A      bset.b #$0005,$00001F6A            0.00% (10, 260, 0, 0)
00E1662E 3039 0000 1E6C           move.w $00001E6C,d0                0.00% (10, 160, 0, 0)
00E16634 1228 0001                move.b (a0,$0001),d1               0.00% (10, 120, 0, 0)
00E16638 4881                     ext.w d1                           0.00% (10, 40, 0, 0)
00E1663A D041                     add.w d1,d0                        0.00% (10, 40, 0, 0)
00E1663C 3239 0000 1E6E           move.w $00001E6E,d1                0.00% (10, 160, 0, 0)
00E16642 1628 0002                move.b (a0,$0002),d3               0.00% (10, 120, 0, 0)
00E16646 4883                     ext.w d3                           0.00% (10, 40, 0, 0)
00E16648 D243                     add.w d3,d1                        0.00% (10, 40, 0, 0)
00E1664A 6100 FF48                bsr.w #$FF48                       0.00% (10, 200, 0, 0)
00E1664E 2279 0000 2094           movea.l $00002094,a1               0.00% (10, 200, 0, 0)
00E16654 4E91                     jsr (a1)                           0.00% (10, 160, 0, 0)
00E16656 6100 FF3C                bsr.w #$FF3C                       0.00% (10, 200, 0, 0)
00E1665A 33C0 0000 1E6C           move.w d0,$00001E6C                0.00% (10, 160, 0, 0)
00E16660 33C1 0000 1E6E           move.w d1,$00001E6E                0.00% (10, 160, 0, 0)
00E16666 2279 0000 2090           movea.l $00002090,a1               0.00% (10, 200, 0, 0)
00E1666C 4E91                     jsr (a1)                           0.00% (10, 160, 0, 0)
00E1666E 4CDF 7FFF                movem.l (a7)+,d0-d7/a0-a6          0.00% (10, 1320, 0, 0)
00E16672 4E75                     rts                                0.00% (10, 160, 0, 0)
[...]
00E166CC 4A79 0000 1E70           tst.w $00001E70                    0.00% (10, 160, 0, 0)
00E166D2 661C                     bne.b #$1C                         0.00% (10, 100, 0, 0)
[...]
00E166F0 4E75                     rts                                0.00% (10, 180, 0, 0)
[...]
00E1A958 2F02                     move.l d2,-(a7)                    0.00% (160, 1920, 0, 0)
00E1A95A 342F 0008                move.w (a7,$0008),d2               0.00% (160, 1920, 0, 0)
00E1A95E 4A79 0000 8458           tst.w $00008458                    0.00% (160, 2560, 0, 0)
00E1A964 6614                     bne.b #$14                         0.00% (160, 1280, 0, 0)
00E1A966 33FC 0001 0000 8458      move.w #$0001,$00008458            0.00% (160, 3200, 0, 0)
00E1A96E 3F02                     move.w d2,-(a7)                    0.00% (160, 1280, 0, 0)
00E1A970 2079 0000 2084           movea.l $00002084,a0               0.00% (160, 3200, 0, 0)
00E1A976 4E90                     jsr (a0)                           0.00% (160, 2560, 0, 0)
00E1A978 548F                     addaq.l #$02,a7                    0.00% (160, 1280, 0, 0)
00E1A97A 4279 0000 8458           clr.w $00008458                    0.00% (160, 3200, 0, 0)
00E1A980 3F42 0008                move.w d2,(a7,$0008)               0.00% (160, 1920, 0, 0)
00E1A984 2079 0000 2088           movea.l $00002088,a0               0.00% (160, 3200, 0, 0)
00E1A98A 241F                     move.l (a7)+,d2                    0.00% (160, 1920, 0, 0)
00E1A98C 4ED0                     jmp (a0)                           0.00% (160, 1280, 0, 0)
[...]
00E1B2C0 2F03                     move.l d3,-(a7)                    0.00% (192, 2304, 0, 0)
00E1B2C2 2F02                     move.l d2,-(a7)                    0.00% (192, 2304, 0, 0)
00E1B2C4 4A39 0000 1F73           tst.b $00001F73                    0.00% (192, 3072, 0, 0)
00E1B2CA 6654                     bne.b #$54                         0.00% (192, 1536, 0, 0)
00E1B2CC 4A79 0000 1E70           tst.w $00001E70                    0.00% (192, 3072, 0, 0)
00E1B2D2 664C                     bne.b #$4C                         0.00% (192, 1920, 0, 0)
[...]
00E1B320 241F                     move.l (a7)+,d2                    0.00% (192, 2688, 0, 0)
00E1B322 261F                     move.l (a7)+,d3                    0.00% (192, 2360, 0, 0)
00E1B324 4E75                     rts                                0.00% (192, 3072, 0, 0)
[...]
00E1BA84 2F02                     move.l d2,-(a7)                    0.00% (192, 2304, 0, 0)
00E1BA86 206F 0008                movea.l (a7,$0008),a0              0.00% (192, 3072, 0, 0)
00E1BA8A 3210                     move.w (a0),d1                     0.00% (192, 1536, 0, 0)
00E1BA8C 3001                     move.w d1,d0                       0.00% (192, 768, 0, 0)
00E1BA8E D068 000E                add.w (a0,$000E),d0                0.00% (192, 2304, 0, 0)
00E1BA92 5340                     subq.w #$01,d0                     0.00% (192, 768, 0, 0)
00E1BA94 3140 003A                move.w d0,(a0,$003A)               0.00% (192, 2304, 0, 0)
00E1BA98 3028 0002                move.w (a0,$0002),d0               0.00% (192, 2304, 0, 0)
00E1BA9C 3400                     move.w d0,d2                       0.00% (192, 768, 0, 0)
00E1BA9E D468 0010                add.w (a0,$0010),d2                0.00% (192, 2304, 0, 0)
00E1BAA2 5342                     subq.w #$01,d2                     0.00% (192, 768, 0, 0)
00E1BAA4 3142 003C                move.w d2,(a0,$003C)               0.00% (192, 2304, 0, 0)
00E1BAA8 D268 001C                add.w (a0,$001C),d1                0.00% (192, 2304, 0, 0)
00E1BAAC 5341                     subq.w #$01,d1                     0.00% (192, 768, 0, 0)
00E1BAAE 3141 0042                move.w d1,(a0,$0042)               0.00% (192, 2304, 0, 0)
00E1BAB2 D068 001E                add.w (a0,$001E),d0                0.00% (192, 2304, 0, 0)
00E1BAB6 5340                     subq.w #$01,d0                     0.00% (192, 768, 0, 0)
00E1BAB8 3140 0044                move.w d0,(a0,$0044)               0.00% (192, 2304, 0, 0)
00E1BABC 4A79 0000 358A           tst.w $0000358A                    0.00% (192, 3072, 0, 0)
00E1BAC2 6706                     beq.b #$06                         0.00% (192, 1920, 0, 0)
[...]
00E1BACA 2F48 0008                move.l a0,(a7,$0008)               0.00% (192, 3456, 0, 0)
00E1BACE 241F                     move.l (a7)+,d2                    0.00% (192, 2304, 0, 0)
00E1BAD0 4EF9 00E1 DB94           jmp $00E1DB94                      0.00% (192, 2304, 0, 0)
[...]
00E1D868 3010                     move.w (a0),d0                     0.41% (78744, 630176, 0, 0)
00E1D86A E978                     rol.w d4,d0                        0.41% (78744, 1260240, 0, 0)
00E1D86C 4EEA 0008                jmp (a2,$0008)                     0.41% (78744, 787872, 0, 0)
00E1D870 3010                     move.w (a0),d0                     0.36% (69480, 555952, 0, 0)
00E1D872 E878                     ror.w d4,d0                        0.36% (69480, 833928, 0, 0)
00E1D874 4EEA 0008                jmp (a2,$0008)                     0.36% (69480, 694962, 0, 0)
[...]
00E1D95E 4845                     swap.w d5                          0.76% (148224, 593288, 0, 0)
00E1D960 5345                     subq.w #$01,d5                     0.76% (148224, 593120, 0, 0)
00E1D962 670C                     beq.b #$0C                         0.76% (148224, 1187608, 0, 0)
00E1D964 4845                     swap.w d5                          0.76% (147456, 590104, 0, 0)
00E1D966 D0EE FFFE                adda.w (a6,-$0002),a0              0.76% (147456, 2360024, 0, 0)
00E1D96A D2EE FFFC                adda.w (a6,-$0004),a1              0.76% (147456, 2360472, 0, 0)
00E1D96E 4ED4                     jmp (a4) _memcpy                   0.76% (147456, 1179816, 0, 0)
00E1D970 4E75                     rts                                0.00% (768, 13880, 0, 0)
[...]
00E1DA6E 3211                     move.w (a1),d1                     0.76% (148224, 1483114, 0, 0)
00E1DA70 B340                     eor.w d1,d0                        0.76% (148224, 593064, 0, 0)
00E1DA72 C046                     and.w d6,d0                        0.76% (148224, 593120, 0, 0)
00E1DA74 B340                     eor.w d1,d0                        0.76% (148224, 593120, 0, 0)
00E1DA76 3280                     move.w d0,(a1)                     0.76% (148224, 1186464, 0, 0)
00E1DA78 4ED3                     jmp (a3) _render_maze              0.76% (148224, 1185960, 0, 0)
[...]
00E1DB94 206F 0004                movea.l (a7,$0004),a0              0.00% (192, 3072, 0, 0)
00E1DB98 48E7 3F3E                movem.l d2-d7/a2-a6,-(a7)          0.00% (192, 18432, 0, 0)
00E1DB9C 4DE8 004C                lea.l (a0,$004C),a6                0.00% (192, 1536, 0, 0)
00E1DBA0 302E FFC2                move.w (a6,-$003E),d0              0.00% (192, 2304, 0, 0)
00E1DBA4 342E FFD0                move.w (a6,-$0030),d2              0.00% (192, 2304, 0, 0)
00E1DBA8 382E FFEE                move.w (a6,-$0012),d4              0.00% (192, 2304, 0, 0)
00E1DBAC 3C2E FFF6                move.w (a6,-$000A),d6              0.00% (192, 2304, 0, 0)
00E1DBB0 206E FFC6                movea.l (a6,-$003A),a0             0.00% (192, 3072, 0, 0)
00E1DBB4 226E FFD4                movea.l (a6,-$002C),a1             0.00% (192, 3072, 0, 0)
00E1DBB8 2479 0000 20D2           movea.l $000020D2,a2               0.00% (192, 3840, 0, 0)
00E1DBBE 6106                     bsr.b #$06                         0.00% (192, 3840, 0, 0)
00E1DBC0 4CDF 7CFC                movem.l (a7)+,d2-d7/a2-a6          0.00% (192, 19200, 0, 0)
00E1DBC4 4E75                     rts                                0.00% (192, 3072, 0, 0)
00E1DBC6 7A0F                     moveq #$0F,d5                      0.00% (192, 768, 0, 0)
00E1DBC8 3200                     move.w d0,d1                       0.00% (192, 768, 0, 0)
00E1DBCA C245                     and.w d5,d1                        0.00% (192, 768, 0, 0)
00E1DBCC 3602                     move.w d2,d3                       0.00% (192, 768, 0, 0)
00E1DBCE C645                     and.w d5,d3                        0.00% (192, 768, 0, 0)
00E1DBD0 7E04                     moveq #$04,d7                      0.00% (192, 768, 0, 0)
00E1DBD2 EE68                     lsr.w d7,d0                        0.00% (192, 2688, 0, 0)
00E1DBD4 EE6A                     lsr.w d7,d2                        0.00% (192, 2688, 0, 0)
00E1DBD6 EE6C                     lsr.w d7,d4                        0.00% (192, 2688, 0, 0)
00E1DBD8 EE6E                     lsr.w d7,d6                        0.00% (192, 2688, 0, 0)
00E1DBDA 9840                     sub.w d0,d4                        0.00% (192, 768, 0, 0)
00E1DBDC 9C42                     sub.w d2,d6                        0.00% (192, 768, 0, 0)
00E1DBDE 3A04                     move.w d4,d5                       0.00% (192, 768, 0, 0)
00E1DBE0 9A46                     sub.w d6,d5                        0.00% (192, 768, 0, 0)
00E1DBE2 9243                     sub.w d3,d1                        0.00% (192, 768, 0, 0)
00E1DBE4 661A                     bne.b #$1A                         0.00% (192, 1920, 0, 0)
[...]
00E1DC00 3006                     move.w d6,d0                       0.00% (192, 768, 0, 0)
00E1DC02 5340                     subq.w #$01,d0                     0.00% (192, 768, 0, 0)
00E1DC04 3D40 FFFA                move.w d0,(a6,-$0006)              0.00% (192, 2688, 0, 0)
00E1DC08 0245 0001                and.w #$0001,d5                    0.00% (192, 1536, 0, 0)
00E1DC0C E74D                     lsl.w #$03,d5                      0.00% (192, 2304, 0, 0)
00E1DC0E 3E04                     move.w d4,d7                       0.00% (192, 768, 0, 0)
00E1DC10 3801                     move.w d1,d4                       0.00% (192, 768, 0, 0)
00E1DC12 3401                     move.w d1,d2                       0.00% (192, 768, 0, 0)
00E1DC14 4A44                     tst.w d4                           0.00% (192, 768, 0, 0)
00E1DC16 6E06                     bgt.b #$06                         0.00% (192, 1740, 0, 0)
00E1DC18 6712                     beq.b #$12                         0.00% (90, 720, 0, 0)
00E1DC1A 4444                     neg.w d4                           0.00% (90, 360, 0, 0)
00E1DC1C 5245                     addq.w #$01,d5                     0.00% (90, 360, 0, 0)
00E1DC1E 0C44 0008                cmp.w #$0008,d4                    0.00% (192, 1536, 0, 0)
00E1DC22 6D08                     blt.b #$08                         0.00% (192, 1920, 0, 0)
[...]
00E1DC2C 302E FFC2                move.w (a6,-$003E),d0              0.00% (192, 2484, 0, 0)
00E1DC30 322E FFC4                move.w (a6,-$003C),d1              0.00% (192, 2304, 0, 0)
00E1DC34 6100 026A                bsr.w #$026A                       0.00% (192, 3840, 0, 0)
00E1DC38 CEEE FFCA                mulu.w (a6,-$0036),d7              0.00% (192, 9216, 0, 0)
00E1DC3C 9E43                     sub.w d3,d7                        0.00% (192, 768, 0, 0)
00E1DC3E 302E FFD0                move.w (a6,-$0030),d0              0.00% (192, 2304, 0, 0)
00E1DC42 322E FFD2                move.w (a6,-$002E),d1              0.00% (192, 2360, 0, 0)
00E1DC46 3D41 FFE8                move.w d1,(a6,-$0018)              0.00% (192, 2304, 0, 0)
00E1DC4A 6100 026A                bsr.w #$026A                       0.00% (192, 3840, 0, 0)
00E1DC4E CCEE FFD8                mulu.w (a6,-$0028),d6              0.00% (192, 9216, 0, 0)
00E1DC52 9C43                     sub.w d3,d6                        0.00% (192, 768, 0, 0)
00E1DC54 B1C9                     cmpa.l a1,a0                       0.00% (192, 1152, 0, 0)
00E1DC56 622A                     bhi.b #$2A                         0.00% (192, 1920, 0, 0)
[...]
00E1DC82 4447                     neg.w d7                           0.00% (192, 768, 0, 0)
00E1DC84 4446                     neg.w d6                           0.00% (192, 768, 0, 0)
00E1DC86 3D47 FFFE                move.w d7,(a6,-$0002)              0.00% (192, 2304, 0, 0)
00E1DC8A 3D46 FFFC                move.w d6,(a6,-$0004)              0.00% (192, 2304, 0, 0)
00E1DC8E 6100 01CC                bsr.w #$01CC                       0.00% (192, 3840, 0, 0)
00E1DC92 342E FFCA                move.w (a6,-$0036),d2              0.00% (192, 2304, 0, 0)
00E1DC96 362E FFD8                move.w (a6,-$0028),d3              0.00% (192, 2304, 0, 0)
00E1DC9A 0805 0002                btst.l #$0002,d5                   0.00% (192, 1920, 0, 0)
00E1DC9E 6706                     beq.b #$06                         0.00% (192, 1920, 0, 0)
[...]
00E1DCA6 2D48 FFEA                move.l a0,(a6,-$0016)              0.00% (192, 3072, 0, 0)
00E1DCAA 2D49 FFF2                move.l a1,(a6,-$000E)              0.00% (192, 3072, 0, 0)
00E1DCAE E745                     asl.w #$03,d5                      0.00% (192, 2304, 0, 0)
00E1DCB0 267B 5042                movea.l (pc,d5.w,$42=$00e1dcf4),a3 0.00% (192, 3456, 0, 0)
00E1DCB4 287B 503A                movea.l (pc,d5.w,$3a=$00e1dcf0),a4 0.00% (192, 3456, 0, 0)
00E1DCB8 4A6E FFFA                tst.w (a6,-$0006)                  0.00% (192, 2304, 0, 0)
00E1DCBC 6C00 00B2                bge.w #$00B2                       0.00% (192, 2304, 0, 0)
00E1DCC0 2006                     move.l d6,d0                       0.00% (192, 768, 0, 0)
00E1DCC2 4840                     swap.w d0                          0.00% (192, 768, 0, 0)
00E1DCC4 CC40                     and.w d0,d6                        0.00% (192, 768, 0, 0)
00E1DCC6 47FA FC96                lea.l (pc,$FC96),a3                0.00% (192, 1536, 0, 0)
00E1DCCA 0805 0006                btst.l #$0006,d5                   0.00% (192, 1920, 0, 0)
00E1DCCE 6600 00A0                bne.w #$00A0                       0.00% (192, 2304, 0, 0)
00E1DCD2 E24D                     lsr.w #$01,d5                      0.00% (192, 1536, 0, 0)
00E1DCD4 0245 000C                and.w #$000C,d5                    0.00% (192, 1536, 0, 0)
00E1DCD8 287B 5006                movea.l (pc,d5.w,$06=$00e1dce0),a4 0.00% (192, 3456, 0, 0)
00E1DCDC 6000 0092                bra.w #$0092                       0.00% (192, 1920, 0, 0)
[...]
00E1DD70 4AAE FFDE                tst.l (a6,-$0022)                  0.00% (192, 3456, 0, 0)
00E1DD74 6716                     beq.b #$16                         0.00% (192, 1920, 0, 0)
[...]
00E1DD8C 4240                     clr.w d0                           0.00% (768, 3072, 0, 0)
00E1DD8E E2EE FFBA                lsr.w (a6,-$0046)                  0.00% (768, 13824, 0, 0)
00E1DD92 D140                     addx.w d0,d0                       0.00% (768, 3072, 0, 0)
00E1DD94 E2EE FFBC                lsr.w (a6,-$0044)                  0.00% (768, 12288, 0, 0)
00E1DD98 D140                     addx.w d0,d0                       0.00% (768, 3072, 0, 0)
00E1DD9A 1036 00BE                move.b (a6,d0.w,$be),d0            0.00% (768, 12288, 0, 0)
00E1DD9E 3200                     move.w d0,d1                       0.00% (768, 3072, 0, 0)
00E1DDA0 E549                     lsl.w #$02,d1                      0.00% (768, 7680, 0, 0)
00E1DDA2 247B 105A                movea.l (pc,d1.w,$5a=$00e1ddfe),a2 0.00% (768, 13824, 0, 0)
00E1DDA6 3A2E FFB6                move.w (a6,-$004A),d5              0.00% (768, 9216, 0, 0)
00E1DDAA 4845                     swap.w d5                          0.00% (768, 3072, 0, 0)
00E1DDAC 3A2E FFFA                move.w (a6,-$0006),d5              0.00% (768, 9216, 0, 0)
00E1DDB0 223C 0000 8421           move.l #$00008421,d1               0.00% (768, 9216, 0, 0)
00E1DDB6 0101                     btst.l d0,d1                       0.00% (768, 4608, 0, 0)
00E1DDB8 6600 0084                bne.w #$0084                       0.00% (768, 9216, 0, 0)
00E1DDBC 4AAE FFDE                tst.l (a6,-$0022)                  0.00% (768, 13824, 0, 0)
00E1DDC0 6708                     beq.b #$08                         0.00% (768, 7680, 0, 0)
[...]
00E1DDCA 4E94                     jsr (a4) _memcpy                   0.00% (768, 13824, 0, 0)
00E1DDCC 536E FFB8                subq.w #$01,(a6,-$0048)            0.00% (768, 12344, 0, 0)
00E1DDD0 672A                     beq.b #$2A                         0.00% (768, 6528, 0, 0)
00E1DDD2 206E FFEA                movea.l (a6,-$0016),a0             0.00% (576, 9216, 0, 0)
00E1DDD6 D0EE FFCE                adda.w (a6,-$0032),a0              0.00% (576, 9216, 0, 0)
00E1DDDA 2D48 FFEA                move.l a0,(a6,-$0016)              0.00% (576, 9272, 0, 0)
00E1DDDE 226E FFF2                movea.l (a6,-$000E),a1             0.00% (576, 9216, 0, 0)
00E1DDE2 D2EE FFDC                adda.w (a6,-$0024),a1              0.00% (576, 9216, 0, 0)
00E1DDE6 2D49 FFF2                move.l a1,(a6,-$000E)              0.00% (576, 9216, 0, 0)
00E1DDEA 202E FFDE                move.l (a6,-$0022),d0              0.00% (576, 9216, 0, 0)
00E1DDEE 679C                     beq.b #$9C                         0.00% (576, 5760, 0, 0)
[...]
00E1DDFC 4E75                     rts                                0.00% (192, 3456, 0, 0)
[...]
00E1DE5C 302E FFF6                move.w (a6,-$000A),d0              0.00% (192, 2304, 0, 0)
00E1DE60 0240 000F                and.w #$000F,d0                    0.00% (192, 1536, 0, 0)
00E1DE64 D040                     add.w d0,d0                        0.00% (192, 768, 0, 0)
00E1DE66 3C3B 0018                move.w (pc,d0.w,$18=$00e1de80),d6  0.00% (192, 2688, 0, 0)
00E1DE6A 4846                     swap.w d6                          0.00% (192, 768, 0, 0)
00E1DE6C 302E FFD0                move.w (a6,-$0030),d0              0.00% (192, 2688, 0, 0)
00E1DE70 0240 000F                and.w #$000F,d0                    0.00% (192, 1536, 0, 0)
00E1DE74 D040                     add.w d0,d0                        0.00% (192, 768, 0, 0)
00E1DE76 3C3B 0006                move.w (pc,d0.w,$06=$00e1de7e),d6  0.00% (192, 2688, 0, 0)
00E1DE7A 4646                     not.w d6                           0.00% (192, 768, 0, 0)
00E1DE7C 4E75                     rts                                0.00% (192, 3456, 0, 0)
[...]
00E1DEA0 206E FFC6                movea.l (a6,-$003A),a0             0.00% (192, 3072, 0, 0)
00E1DEA4 362E FFCC                move.w (a6,-$0034),d3              0.00% (192, 2304, 0, 0)
00E1DEA8 E848                     lsr.w #$04,d0                      0.00% (192, 2688, 0, 0)
00E1DEAA C0EE FFCA                mulu.w (a6,-$0036),d0              0.00% (192, 9600, 0, 0)
00E1DEAE C2C3                     mulu.w d3,d1                       0.00% (192, 8064, 0, 0)
00E1DEB0 D280                     add.l d0,d1                        0.00% (192, 1536, 0, 0)
00E1DEB2 D1C1                     adda.l d1,a0                       0.00% (192, 1536, 0, 0)
00E1DEB4 4E75                     rts                                0.00% (192, 3456, 0, 0)
00E1DEB6 226E FFD4                movea.l (a6,-$002C),a1             0.00% (192, 3072, 0, 0)
00E1DEBA 362E FFDA                move.w (a6,-$0026),d3              0.00% (192, 2304, 0, 0)
00E1DEBE E848                     lsr.w #$04,d0                      0.00% (192, 2688, 0, 0)
00E1DEC0 C0EE FFD8                mulu.w (a6,-$0028),d0              0.00% (192, 9600, 0, 0)
00E1DEC4 C2C3                     mulu.w d3,d1                       0.00% (192, 8064, 0, 0)
00E1DEC6 D280                     add.l d0,d1                        0.00% (192, 1536, 0, 0)
00E1DEC8 D3C1                     adda.l d1,a1                       0.00% (192, 1536, 0, 0)
00E1DECA 4E75                     rts                                0.00% (192, 3456, 0, 0)
[...]
00E1EB76 23CF 0000 8856           move.l a7,$00008856                0.00% (160, 3200, 0, 0)
00E1EB7C 4FF9 0000 8EF4           lea.l $00008EF4,a7                 0.00% (160, 1920, 0, 0)
00E1EB82 4AB9 0000 8862           tst.l $00008862                    0.00% (160, 3200, 0, 0)
00E1EB88 672C                     beq.b #$2C                         0.00% (160, 1600, 0, 0)
[...]
00E1EBB6 3F3C 0001                move.w #$0001,-(a7)                0.00% (160, 2240, 0, 0)
00E1EBBA 4EB9 00E2 3FBC           jsr $00E23FBC                      0.00% (160, 3200, 0, 0)
00E1EBC0 548F                     addaq.l #$02,a7                    0.00% (160, 1280, 0, 0)
00E1EBC2 2E79 0000 8856           movea.l $00008856,a7               0.00% (160, 3200, 0, 0)
00E1EBC8 2F39 0000 885A           move.l $0000885A,-(a7)             0.00% (160, 4480, 0, 0)
00E1EBCE 4E75                     rts                                0.00% (160, 2560, 0, 0)
[...]
00E23FBC 2F0A                     move.l a2,-(a7)                    0.00% (160, 1920, 0, 0)
00E23FBE 2F02                     move.l d2,-(a7)                    0.00% (160, 1920, 0, 0)
00E23FC0 3039 0000 CA10           move.w $0000CA10,d0                0.00% (160, 2560, 0, 0)
00E23FC6 6776                     beq.b #$76                         0.00% (160, 1600, 0, 0)
[...]
00E2403E 241F                     move.l (a7)+,d2                    0.00% (160, 2240, 0, 0)
00E24040 245F                     movea.l (a7)+,a2                   0.00% (160, 1920, 0, 0)
00E24042 4E75                     rts                                0.00% (160, 2560, 0, 0)
# <callee>: <caller1> = <calls> <types>[ <inclusive/totals>[ <exclusive/totals>]], <caller2> ..., <callee name>
# types: u = unknown PC change, n = PC moved to next instruction, b = branch/jump, s = subroutine call, r = return from subroutine, e = exception, x = return from exception, 
# totals: calls/instructions/cycles/i-misses/d-hits
0x30182: 0x30e72 = 192 s 192/19472/317232 192/19472/317232, _swap_pages
0x30276: 0x30ae4 = 192 s 576/2443471/20302836 192/8640/174336, _lineablit
0x3060c: 0x30e12 = 192 s 3200/956971/10441672 192/869827/9276172, 0x30e3e = 192 s 3203/963904/10615000 192/879391/9486104, _render_maze
0x30a96: 0x30e66 = 192 s 768/2449423/20392692 192/5952/89856, _render_sprite
0x30f26: 0x30686 = 384 s 768/11909/223488 384/5376/64512, 0x3069a = 384 s 768/11909/223280 384/5376/64512, 0x306c2 = 384 s 768/11909/222868 384/5376/64512, 0x306d0 = 384 s 768/11979/224152 384/5376/64512, 0x30e54 = 192 s 384/6022/113220 192/2688/32256, ___divsi3
0x31e7e: 0x30f42 = 1728 s 1728/29536/716704 1728/29536/716704, ___udivsi3
0x32ee0: 0x3034a = 192 s 192/2423114/20003164 192/2423114/20003164, _linea7
0x3ae42: 0x309f4 = 2947 s 2947/123951/1400608 2947/123951/1400608, 0x30e0a = 192 s 192/7942/89600 192/7942/89600, 0x30e34 = 192 s 192/7877/88472 192/7877/88472, 0xe00814 = 1 x, _memcpy
0x3ae54: 0x3ae4a = 3331 b, 0xe00814 = 1 x, common
0x3ae58: 0x3ae54 = 3332 n, common2
0x3ae7c: 0x3ae76 = 1860 b, both_even
0x3aece: 0x3ae82 = 1860 b, less256
0x3aee6: 0x3aee2 = 1860 b, copy16
0x3aef2: 0x3aeee = 1859 b, 0xe00814 = 1 x, less4
0x3aefa: 0x3aef6 = 1860 b, less2
0x3af02: 0x3aefe = 1860 b, 0x3afd2 = 1472 b, exit_d2
0x3af04: 0x3af02 = 3331 n, 0xe00814 = 1 x, exit
0x3af32: 0x3ae60 = 1472 b, top_down
0x3af4e: 0x3af48 = 1472 b, both_even_d
0x3afa2: 0x3af54 = 1472 b, less256_d
0x3afba: 0x3afb6 = 1472 b, copy16_d
0x3afc6: 0x3afc2 = 1470 b, 0xe00814 = 2 x, less4_d
0x3afce: 0x3afca = 1471 b, 0xe00814 = 1 x, less2_d
0x3b062: 0x302d6 = 192 s 192/11717/125336 192/11717/125336, _memset
0x3b072: 0x3b06e = 192 b, do_set
0x3b082: 0x3b07c = 192 b, areeven
0x3b0ce: 0x3b094 = 192 b, less256
0x3b0e6: 0x3b0ee = 768 b, set16
0x3b0f2: 0x3b0ee = 192 b, less4
0x3b0fc: 0x3b0f8 = 192 b, less2
0x3b104: 0x3b100 = 192 b, exit_d2
0x3b106: 0x3b104 = 192 n, exit
